

Microchip MPLAB XC8 Assembler V2.05 build -831301201 
                                                                                               Tue Dec 17 09:26:39 2019

Microchip MPLAB XC8 C Compiler v2.05 (Free license) build 20181220022703 Og1 
     1                           	processor	18F452
     2                           	fnconf	rparam,??,?,0
     3                           	opt	pw 120
     4                           	opt	flic
     5                           	psect	idataCOMRAM,global,class=CODE,delta=1,noexec
     6                           	psect	cinit,global,reloc=2,class=CODE,delta=1
     7                           	psect	bssCOMRAM,global,class=COMRAM,space=1,delta=1,noexec
     8                           	psect	dataCOMRAM,global,class=COMRAM,space=1,delta=1,noexec
     9                           	psect	cstackCOMRAM,global,class=COMRAM,space=1,delta=1,noexec
    10                           	psect	text0,global,reloc=2,class=CODE,delta=1
    11                           	psect	text1,global,reloc=2,class=CODE,delta=1
    12                           	psect	text2,global,reloc=2,class=CODE,delta=1
    13                           	psect	text3,global,reloc=2,class=CODE,delta=1
    14                           	psect	text4,global,reloc=2,class=CODE,delta=1
    15                           	psect	intcode,global,reloc=2,class=CODE,delta=1
    16                           	psect	intsave_regs,global,class=BIGRAM,space=1,delta=1,noexec
    17                           	psect	rparam,global,class=COMRAM,space=1,delta=1,noexec
    18                           	psect	temp,global,ovrld,common,class=COMRAM,space=1,delta=1
    19  0000                     
    20                           ; Version 2.05
    21                           ; Generated 20/12/2018 GMT
    22                           ; 
    23                           ; Copyright © 2018, Microchip Technology Inc. and its subsidiaries ("Microchip")
    24                           ; All rights reserved.
    25                           ; 
    26                           ; This software is developed by Microchip Technology Inc. and its subsidiaries ("Microch
      +                          ip").
    27                           ; 
    28                           ; Redistribution and use in source and binary forms, with or without modification, are
    29                           ; permitted provided that the following conditions are met:
    30                           ; 
    31                           ;     1. Redistributions of source code must retain the above copyright notice, this lis
      +                          t of
    32                           ;        conditions and the following disclaimer.
    33                           ; 
    34                           ;     2. Redistributions in binary form must reproduce the above copyright notice, this 
      +                          list
    35                           ;        of conditions and the following disclaimer in the documentation and/or other
    36                           ;        materials provided with the distribution.
    37                           ; 
    38                           ;     3. Microchip's name may not be used to endorse or promote products derived from th
      +                          is
    39                           ;        software without specific prior written permission.
    40                           ; 
    41                           ; THIS SOFTWARE IS PROVIDED BY MICROCHIP "AS IS" AND ANY EXPRESS OR IMPLIED WARRANTIES,
    42                           ; INCLUDING, BUT NOT LIMITED TO, THE IMPLIED WARRANTIES OF MERCHANTABILITY AND FITNESS F
      +                          OR
    43                           ; PURPOSE ARE DISCLAIMED.  IN NO EVENT SHALL MICROCHIP BE LIABLE FOR ANY DIRECT, INDIREC
      +                          T,
    44                           ; INCIDENTAL, SPECIAL, EXEMPLARY, OR CONSEQUENTIAL DAMAGES (INCLUDING BUT NOT LIMITED TO
    45                           ; PROCUREMENT OF SUBSTITUTE GOODS OR SERVICES; LOSS OF USE, DATA OR PROFITS; OR BUSINESS
    46                           ; INTERRUPTION) HOWSOEVER CAUSED AND ON ANY THEORY OF LIABILITY, WHETHER IN CONTRACT, ST
      +                          RICT
    47                           ; LIABILITY, OR TORT (INCLUDING NEGLIGENCE OR OTHERWISE) ARISING IN ANY WAY OUT OF THE U
      +                          SE OF
    48                           ; THIS SOFTWARE, EVEN IF ADVISED OF THE POSSIBILITY OF SUCH DAMAGE.
    49                           ; 
    50                           ; 
    51                           ; Code-generator required, PIC18F452 Definitions
    52                           ; 
    53                           ; SFR Addresses
    54  0000                     
    55                           	psect	idataCOMRAM
    56  0002BC                     __pidataCOMRAM:
    57                           	opt callstack 0
    58                           
    59                           ;initializer for _p_PORTDdirection
    60  0002BC  95                 	db	149
    61  0002BD  0F                 	db	15
    62                           
    63                           ;initializer for _p_PORTDdata
    64  0002BE  83                 	db	131
    65  0002BF  0F                 	db	15
    66                           
    67                           ;initializer for _p_PORTBdirection
    68  0002C0  93                 	db	147
    69  0002C1  0F                 	db	15
    70                           
    71                           ;initializer for _p_PORTBdata
    72  0002C2  81                 	db	129
    73  0002C3  0F                 	db	15
    74                           
    75                           ;initializer for _p_PORTAdirection
    76  0002C4  92                 	db	146
    77  0002C5  0F                 	db	15
    78                           
    79                           ;initializer for _p_PORTAdata
    80  0002C6  80                 	db	128
    81  0002C7  0F                 	db	15
    82                           
    83                           ;initializer for _BTN0
    84  0002C8  41                 	db	65
    85  0002C9  04                 	db	4
    86  0002CA  01                 	db	1
    87  0002CB  00                 	db	0
    88  0002CC  00                 	db	0
    89  0002CD  00                 	db	0
    90  0002CE  00                 	db	0
    91                           
    92                           ;initializer for _LED2
    93  0002CF  42                 	db	66
    94  0002D0  02                 	db	2
    95  0002D1  00                 	db	0
    96  0002D2  00                 	db	0
    97  0002D3  00                 	db	0
    98  0002D4  00                 	db	0
    99  0002D5  00                 	db	0
   100                           
   101                           ;initializer for _LED1
   102  0002D6  42                 	db	66
   103  0002D7  01                 	db	1
   104  0002D8  00                 	db	0
   105  0002D9  00                 	db	0
   106  0002DA  00                 	db	0
   107  0002DB  00                 	db	0
   108  0002DC  00                 	db	0
   109                           
   110                           ;initializer for _LED0
   111  0002DD  42                 	db	66
   112  0002DE  00                 	db	0
   113  0002DF  00                 	db	0
   114  0002E0  00                 	db	0
   115  0002E1  00                 	db	0
   116  0002E2  00                 	db	0
   117  0002E3  00                 	db	0
   118  0000                     _T0CONbits	set	4053
   119  0000                     _INTCON2bits	set	4081
   120  0000                     _INTCON3bits	set	4080
   121  0000                     _INTCON1bits	set	4082
   122  0000                     _TMR0L	set	4054
   123  0000                     _PORTB	set	3969
   124  0000                     _TMR0IF	set	32658
   125  0000                     _RBIF	set	32656
   126  0000                     _INT2IF	set	32641
   127  0000                     _INT1IF	set	32640
   128  0000                     _INT0IF	set	32657
   129                           
   130                           ; #config settings
   131  0000                     
   132                           	psect	cinit
   133  00024E                     __pcinit:
   134                           	opt callstack 0
   135  00024E                     start_initialization:
   136                           	opt callstack 0
   137  00024E                     __initialization:
   138                           	opt callstack 0
   139                           
   140                           ; Initialize objects allocated to COMRAM (40 bytes)
   141                           ; load TBLPTR registers with __pidataCOMRAM
   142  00024E  0EBC               	movlw	low __pidataCOMRAM
   143  000250  6EF6               	movwf	tblptrl,c
   144  000252  0E02               	movlw	high __pidataCOMRAM
   145  000254  6EF7               	movwf	tblptrh,c
   146  000256  0E00               	movlw	low (__pidataCOMRAM shr (0+16))
   147  000258  6EF8               	movwf	tblptru,c
   148  00025A  EE00  F001         	lfsr	0,__pdataCOMRAM
   149  00025E  EE10 F028          	lfsr	1,40
   150  000262                     copy_data0:
   151  000262  0009               	tblrd		*+
   152  000264  CFF5 FFEE          	movff	tablat,postinc0
   153  000268  50E5               	movf	postdec1,w,c
   154  00026A  50E1               	movf	fsr1l,w,c
   155  00026C  E1FA               	bnz	copy_data0
   156                           
   157                           ; Clear objects allocated to COMRAM (19 bytes)
   158  00026E  EE00  F029         	lfsr	0,__pbssCOMRAM
   159  000272  0E13               	movlw	19
   160  000274                     clear_0:
   161  000274  6AEE               	clrf	postinc0,c
   162  000276  06E8               	decf	wreg,f,c
   163  000278  E1FD               	bnz	clear_0
   164  00027A                     end_of_initialization:
   165                           	opt callstack 0
   166  00027A                     __end_of__initialization:
   167                           	opt callstack 0
   168  00027A  9043               	bcf	int$flags,0,c	;clear compiler interrupt flag (level 1)
   169  00027C  9243               	bcf	int$flags,1,c	;clear compiler interrupt flag (level 2)
   170  00027E  0E00               	movlw	low (__Lmediumconst shr (0+16))
   171  000280  6EF8               	movwf	tblptru,c
   172  000282  0100               	movlb	0
   173  000284  EFFD  F000         	goto	_main	;jump to C main() function
   174                           
   175                           	psect	bssCOMRAM
   176  000029                     __pbssCOMRAM:
   177                           	opt callstack 0
   178  000029                     	ds	8
   179  000031                     INT@callback_TMR0:
   180                           	opt callstack 0
   181  000031                     	ds	2
   182  000033                     INT@callback_INTonChange:
   183                           	opt callstack 0
   184  000033                     	ds	2
   185  000035                     _callback_INT2:
   186                           	opt callstack 0
   187  000035                     	ds	2
   188  000037                     _callback_INT1:
   189                           	opt callstack 0
   190  000037                     	ds	2
   191  000039                     _callback_INT0:
   192                           	opt callstack 0
   193  000039                     	ds	2
   194  00003B                     callback_TMR0@counter:
   195                           	opt callstack 0
   196  00003B                     	ds	1
   197                           
   198                           	psect	dataCOMRAM
   199  000001                     __pdataCOMRAM:
   200                           	opt callstack 0
   201  000001                     _p_PORTDdirection:
   202                           	opt callstack 0
   203  000001                     	ds	2
   204  000003                     _p_PORTDdata:
   205                           	opt callstack 0
   206  000003                     	ds	2
   207  000005                     _p_PORTBdirection:
   208                           	opt callstack 0
   209  000005                     	ds	2
   210  000007                     _p_PORTBdata:
   211                           	opt callstack 0
   212  000007                     	ds	2
   213  000009                     _p_PORTAdirection:
   214                           	opt callstack 0
   215  000009                     	ds	2
   216  00000B                     _p_PORTAdata:
   217                           	opt callstack 0
   218  00000B                     	ds	2
   219  00000D                     _BTN0:
   220                           	opt callstack 0
   221  00000D                     	ds	7
   222  000014                     _LED2:
   223                           	opt callstack 0
   224  000014                     	ds	7
   225  00001B                     _LED1:
   226                           	opt callstack 0
   227  00001B                     	ds	7
   228  000022                     _LED0:
   229                           	opt callstack 0
   230  000022                     	ds	7
   231                           
   232                           	psect	cstackCOMRAM
   233  00003C                     __pcstackCOMRAM:
   234                           	opt callstack 0
   235  00003C                     DIO_vdWriteDirPin@port:
   236                           	opt callstack 0
   237  00003C                     TMR0_vdInit@bits:
   238                           	opt callstack 0
   239                           
   240                           ; 1 bytes @ 0x0
   241  00003C                     	ds	1
   242  00003D                     DIO_vdWriteDirPin@pin:
   243                           	opt callstack 0
   244  00003D                     TMR0_vdInit@edge:
   245                           	opt callstack 0
   246                           
   247                           ; 1 bytes @ 0x1
   248  00003D                     	ds	1
   249  00003E                     ??_DIO_vdWriteDirPin:
   250  00003E                     TMR0_vdInit@prescaler:
   251                           	opt callstack 0
   252                           
   253                           ; 1 bytes @ 0x2
   254  00003E                     	ds	1
   255  00003F                     TMR0_vdInit@prescaler_value:
   256                           	opt callstack 0
   257                           
   258                           ; 1 bytes @ 0x3
   259  00003F                     	ds	1
   260  000040                     ??_TMR0_vdInit:
   261  000040                     DIO_vdWriteDirPin@data:
   262                           	opt callstack 0
   263                           
   264                           ; 1 bytes @ 0x4
   265  000040                     	ds	1
   266  000041                     DIO_vdInit@dev:
   267                           	opt callstack 0
   268                           
   269                           ; 2 bytes @ 0x5
   270  000041                     	ds	1
   271  000042                     TMR0_vdInit@mode:
   272                           	opt callstack 0
   273                           
   274                           ; 1 bytes @ 0x6
   275  000042                     	ds	1
   276  000043                     
   277                           ; 1 bytes @ 0x7
   278 ;;
   279 ;;Main: autosize = 0, tempsize = 0, incstack = 0, save=0
   280 ;;
   281 ;; *************** function _main *****************
   282 ;; Defined at:
   283 ;;		line 28 in file "main.c"
   284 ;; Parameters:    Size  Location     Type
   285 ;;		None
   286 ;; Auto vars:     Size  Location     Type
   287 ;;		None
   288 ;; Return value:  Size  Location     Type
   289 ;;                  1    wreg      void 
   290 ;; Registers used:
   291 ;;		wreg, fsr2l, fsr2h, status,2, status,0, cstack
   292 ;; Tracked objects:
   293 ;;		On entry : 0/0
   294 ;;		On exit  : 0/0
   295 ;;		Unchanged: 0/0
   296 ;; Data sizes:     COMRAM   BANK0   BANK1   BANK2   BANK3   BANK4   BANK5
   297 ;;      Params:         0       0       0       0       0       0       0
   298 ;;      Locals:         0       0       0       0       0       0       0
   299 ;;      Temps:          0       0       0       0       0       0       0
   300 ;;      Totals:         0       0       0       0       0       0       0
   301 ;;Total ram usage:        0 bytes
   302 ;; Hardware stack levels required when called:    3
   303 ;; This function calls:
   304 ;;		_DIO_vdInit
   305 ;;		_INT_vdinit
   306 ;;		_TMR0_vdInit
   307 ;; This function is called by:
   308 ;;		Startup code after reset
   309 ;; This function uses a non-reentrant model
   310 ;;
   311                           
   312                           	psect	text0
   313  0001FA                     __ptext0:
   314                           	opt callstack 0
   315  0001FA                     _main:
   316                           	opt callstack 0
   317  0001FA  FFFF               	dw	65535	; assembler added errata NOP
   318                           
   319                           ;main.c: 30:     DIO_vdInit(&LED0);
   320                           
   321                           ;incstack = 0
   322  0001FC  0E22               	movlw	low _LED0
   323  0001FE  6E41               	movwf	DIO_vdInit@dev,c
   324  000200  0E00               	movlw	high _LED0
   325  000202  6E42               	movwf	DIO_vdInit@dev+1,c
   326  000204  EC44  F001         	call	_DIO_vdInit	;wreg free
   327                           
   328                           ;main.c: 31:     DIO_vdInit(&LED1);
   329  000208  0E1B               	movlw	low _LED1
   330  00020A  6E41               	movwf	DIO_vdInit@dev,c
   331  00020C  0E00               	movlw	high _LED1
   332  00020E  6E42               	movwf	DIO_vdInit@dev+1,c
   333  000210  EC44  F001         	call	_DIO_vdInit	;wreg free
   334                           
   335                           ;main.c: 32:     DIO_vdInit(&LED2);
   336  000214  0E14               	movlw	low _LED2
   337  000216  6E41               	movwf	DIO_vdInit@dev,c
   338  000218  0E00               	movlw	high _LED2
   339  00021A  6E42               	movwf	DIO_vdInit@dev+1,c
   340  00021C  EC44  F001         	call	_DIO_vdInit	;wreg free
   341                           
   342                           ;main.c: 33:     DIO_vdInit(&BTN0);
   343  000220  0E0D               	movlw	low _BTN0
   344  000222  6E41               	movwf	DIO_vdInit@dev,c
   345  000224  0E00               	movlw	high _BTN0
   346  000226  6E42               	movwf	DIO_vdInit@dev+1,c
   347  000228  EC44  F001         	call	_DIO_vdInit	;wreg free
   348                           
   349                           ;main.c: 35:     INT_vdinit();
   350  00022C  EC72  F001         	call	_INT_vdinit	;wreg free
   351                           
   352                           ;main.c: 37:     TMR0_vdInit(1,0,0,0,0);
   353  000230  0E00               	movlw	0
   354  000232  6E3C               	movwf	TMR0_vdInit@bits,c
   355  000234  0E00               	movlw	0
   356  000236  6E3D               	movwf	TMR0_vdInit@edge,c
   357  000238  0E00               	movlw	0
   358  00023A  6E3E               	movwf	TMR0_vdInit@prescaler,c
   359  00023C  0E00               	movlw	0
   360  00023E  6E3F               	movwf	TMR0_vdInit@prescaler_value,c
   361  000240  0E01               	movlw	1
   362  000242  EC9A  F000         	call	_TMR0_vdInit
   363  000246                     l1292:
   364  000246  FFFF               	dw	65535	; assembler added errata NOP
   365                           
   366                           ;main.c: 46:         PORTB = TMR0L;
   367  000248  CFD6 FF81          	movff	4054,3969	;volatile
   368  00024C  D7FC               	goto	l1292
   369  00024E                     __end_of_main:
   370                           	opt callstack 0
   371                           
   372 ;; *************** function _TMR0_vdInit *****************
   373 ;; Defined at:
   374 ;;		line 13 in file "TMR0.c"
   375 ;; Parameters:    Size  Location     Type
   376 ;;  mode            1    wreg     unsigned char 
   377 ;;  bits            1    0[COMRAM] unsigned char 
   378 ;;  edge            1    1[COMRAM] unsigned char 
   379 ;;  prescaler       1    2[COMRAM] unsigned char 
   380 ;;  prescaler_va    1    3[COMRAM] unsigned char 
   381 ;; Auto vars:     Size  Location     Type
   382 ;;  mode            1    6[COMRAM] unsigned char 
   383 ;; Return value:  Size  Location     Type
   384 ;;                  2    0[COMRAM] int 
   385 ;; Registers used:
   386 ;;		wreg, status,2, status,0
   387 ;; Tracked objects:
   388 ;;		On entry : 0/0
   389 ;;		On exit  : 0/0
   390 ;;		Unchanged: 0/0
   391 ;; Data sizes:     COMRAM   BANK0   BANK1   BANK2   BANK3   BANK4   BANK5
   392 ;;      Params:         4       0       0       0       0       0       0
   393 ;;      Locals:         1       0       0       0       0       0       0
   394 ;;      Temps:          2       0       0       0       0       0       0
   395 ;;      Totals:         7       0       0       0       0       0       0
   396 ;;Total ram usage:        7 bytes
   397 ;; Hardware stack levels used:    1
   398 ;; Hardware stack levels required when called:    1
   399 ;; This function calls:
   400 ;;		Nothing
   401 ;; This function is called by:
   402 ;;		_main
   403 ;; This function uses a non-reentrant model
   404 ;;
   405                           
   406                           	psect	text1
   407  000134                     __ptext1:
   408                           	opt callstack 0
   409  000134                     _TMR0_vdInit:
   410                           	opt callstack 0
   411  000134  FFFF               	dw	65535	; assembler added errata NOP
   412                           
   413                           ;incstack = 0
   414                           ;TMR0_vdInit@mode stored from wreg
   415  000136  6E42               	movwf	TMR0_vdInit@mode,c
   416                           
   417                           ;TMR0.c: 14:     switch(mode){
   418  000138  D006               	goto	l1252
   419  00013A                     l251:
   420  00013A  FFFF               	dw	65535	; assembler added errata NOP
   421                           
   422                           ;TMR0.c: 16:             T0CONbits.T0CS = 1;
   423  00013C  8AD5               	bsf	4053,5,c	;volatile
   424                           
   425                           ;TMR0.c: 17:             break;
   426  00013E  D019               	goto	l1256
   427  000140                     l253:
   428  000140  FFFF               	dw	65535	; assembler added errata NOP
   429                           
   430                           ;TMR0.c: 19:             T0CONbits.T0CS = 0;
   431  000142  9AD5               	bcf	4053,5,c	;volatile
   432                           
   433                           ;TMR0.c: 20:             break;
   434  000144  D016               	goto	l1256
   435  000146                     l1252:
   436  000146  FFFF               	dw	65535	; assembler added errata NOP
   437  000148  5042               	movf	TMR0_vdInit@mode,w,c
   438  00014A  6E40               	movwf	??_TMR0_vdInit& (0+255),c
   439  00014C  6A41               	clrf	(??_TMR0_vdInit+1)& (0+255),c
   440                           
   441                           ; Switch on 2 bytes has been partitioned into a top level switch of size 1, and 1 sub-sw
      +                          itches
   442                           ; Switch size 1, requested type "simple"
   443                           ; Number of cases is 1, Range of values is 0 to 0
   444                           ; switch strategies available:
   445                           ; Name         Instructions Cycles
   446                           ; simple_byte            4     3 (average)
   447                           ;	Chosen strategy is simple_byte
   448  00014E  5041               	movf	??_TMR0_vdInit+1,w,c
   449  000150  0A00               	xorlw	0	; case 0
   450  000152  A4D8               	btfss	status,2,c
   451  000154  D00E               	goto	l1256
   452                           
   453                           ; Switch size 1, requested type "simple"
   454                           ; Number of cases is 2, Range of values is 0 to 1
   455                           ; switch strategies available:
   456                           ; Name         Instructions Cycles
   457                           ; simple_byte            7     4 (average)
   458                           ;	Chosen strategy is simple_byte
   459  000156  5040               	movf	??_TMR0_vdInit,w,c
   460  000158  0A00               	xorlw	0	; case 0
   461  00015A  B4D8               	btfsc	status,2,c
   462  00015C  D7F1               	goto	l253
   463  00015E  0A01               	xorlw	1	; case 1
   464  000160  B4D8               	btfsc	status,2,c
   465  000162  D7EB               	goto	l251
   466  000164  D006               	goto	l1256
   467  000166                     l255:
   468  000166  FFFF               	dw	65535	; assembler added errata NOP
   469                           
   470                           ;TMR0.c: 24:             T0CONbits.T08BIT = 1;
   471  000168  8CD5               	bsf	4053,6,c	;volatile
   472                           
   473                           ;TMR0.c: 25:             break;
   474  00016A  D019               	goto	l1260
   475  00016C                     l257:
   476  00016C  FFFF               	dw	65535	; assembler added errata NOP
   477                           
   478                           ;TMR0.c: 27:             T0CONbits.T08BIT = 0;
   479  00016E  9CD5               	bcf	4053,6,c	;volatile
   480                           
   481                           ;TMR0.c: 28:             break;
   482  000170  D016               	goto	l1260
   483  000172                     l1256:
   484  000172  FFFF               	dw	65535	; assembler added errata NOP
   485  000174  503C               	movf	TMR0_vdInit@bits,w,c
   486  000176  6E40               	movwf	??_TMR0_vdInit& (0+255),c
   487  000178  6A41               	clrf	(??_TMR0_vdInit+1)& (0+255),c
   488                           
   489                           ; Switch on 2 bytes has been partitioned into a top level switch of size 1, and 1 sub-sw
      +                          itches
   490                           ; Switch size 1, requested type "simple"
   491                           ; Number of cases is 1, Range of values is 0 to 0
   492                           ; switch strategies available:
   493                           ; Name         Instructions Cycles
   494                           ; simple_byte            4     3 (average)
   495                           ;	Chosen strategy is simple_byte
   496  00017A  5041               	movf	??_TMR0_vdInit+1,w,c
   497  00017C  0A00               	xorlw	0	; case 0
   498  00017E  A4D8               	btfss	status,2,c
   499  000180  D00E               	goto	l1260
   500                           
   501                           ; Switch size 1, requested type "simple"
   502                           ; Number of cases is 2, Range of values is 0 to 1
   503                           ; switch strategies available:
   504                           ; Name         Instructions Cycles
   505                           ; simple_byte            7     4 (average)
   506                           ;	Chosen strategy is simple_byte
   507  000182  5040               	movf	??_TMR0_vdInit,w,c
   508  000184  0A00               	xorlw	0	; case 0
   509  000186  B4D8               	btfsc	status,2,c
   510  000188  D7EE               	goto	l255
   511  00018A  0A01               	xorlw	1	; case 1
   512  00018C  B4D8               	btfsc	status,2,c
   513  00018E  D7EE               	goto	l257
   514  000190  D006               	goto	l1260
   515  000192                     l259:
   516  000192  FFFF               	dw	65535	; assembler added errata NOP
   517                           
   518                           ;TMR0.c: 32:             T0CONbits.T0SE = 1;
   519  000194  88D5               	bsf	4053,4,c	;volatile
   520                           
   521                           ;TMR0.c: 33:             break;
   522  000196  D019               	goto	l1264
   523  000198                     l261:
   524  000198  FFFF               	dw	65535	; assembler added errata NOP
   525                           
   526                           ;TMR0.c: 35:             T0CONbits.T0SE = 0;
   527  00019A  98D5               	bcf	4053,4,c	;volatile
   528                           
   529                           ;TMR0.c: 36:             break;
   530  00019C  D016               	goto	l1264
   531  00019E                     l1260:
   532  00019E  FFFF               	dw	65535	; assembler added errata NOP
   533  0001A0  503D               	movf	TMR0_vdInit@edge,w,c
   534  0001A2  6E40               	movwf	??_TMR0_vdInit& (0+255),c
   535  0001A4  6A41               	clrf	(??_TMR0_vdInit+1)& (0+255),c
   536                           
   537                           ; Switch on 2 bytes has been partitioned into a top level switch of size 1, and 1 sub-sw
      +                          itches
   538                           ; Switch size 1, requested type "simple"
   539                           ; Number of cases is 1, Range of values is 0 to 0
   540                           ; switch strategies available:
   541                           ; Name         Instructions Cycles
   542                           ; simple_byte            4     3 (average)
   543                           ;	Chosen strategy is simple_byte
   544  0001A6  5041               	movf	??_TMR0_vdInit+1,w,c
   545  0001A8  0A00               	xorlw	0	; case 0
   546  0001AA  A4D8               	btfss	status,2,c
   547  0001AC  D00E               	goto	l1264
   548                           
   549                           ; Switch size 1, requested type "simple"
   550                           ; Number of cases is 2, Range of values is 0 to 1
   551                           ; switch strategies available:
   552                           ; Name         Instructions Cycles
   553                           ; simple_byte            7     4 (average)
   554                           ;	Chosen strategy is simple_byte
   555  0001AE  5040               	movf	??_TMR0_vdInit,w,c
   556  0001B0  0A00               	xorlw	0	; case 0
   557  0001B2  B4D8               	btfsc	status,2,c
   558  0001B4  D7F1               	goto	l261
   559  0001B6  0A01               	xorlw	1	; case 1
   560  0001B8  B4D8               	btfsc	status,2,c
   561  0001BA  D7EB               	goto	l259
   562  0001BC  D006               	goto	l1264
   563  0001BE                     l263:
   564  0001BE  FFFF               	dw	65535	; assembler added errata NOP
   565                           
   566                           ;TMR0.c: 40:             T0CONbits.PSA = 1;
   567  0001C0  86D5               	bsf	4053,3,c	;volatile
   568                           
   569                           ;TMR0.c: 41:             break;
   570  0001C2  D012               	goto	l1266
   571  0001C4                     l265:
   572  0001C4  FFFF               	dw	65535	; assembler added errata NOP
   573                           
   574                           ;TMR0.c: 43:             T0CONbits.PSA = 0;
   575  0001C6  96D5               	bcf	4053,3,c	;volatile
   576                           
   577                           ;TMR0.c: 44:             break;
   578  0001C8  D00F               	goto	l1266
   579  0001CA                     l1264:
   580  0001CA  FFFF               	dw	65535	; assembler added errata NOP
   581  0001CC  503E               	movf	TMR0_vdInit@prescaler,w,c
   582  0001CE  6E40               	movwf	??_TMR0_vdInit& (0+255),c
   583  0001D0  6A41               	clrf	(??_TMR0_vdInit+1)& (0+255),c
   584                           
   585                           ; Switch on 2 bytes has been partitioned into a top level switch of size 1, and 1 sub-sw
      +                          itches
   586                           ; Switch size 1, requested type "simple"
   587                           ; Number of cases is 1, Range of values is 0 to 0
   588                           ; switch strategies available:
   589                           ; Name         Instructions Cycles
   590                           ; simple_byte            4     3 (average)
   591                           ;	Chosen strategy is simple_byte
   592  0001D2  5041               	movf	??_TMR0_vdInit+1,w,c
   593  0001D4  0A00               	xorlw	0	; case 0
   594  0001D6  A4D8               	btfss	status,2,c
   595  0001D8  D007               	goto	l1266
   596                           
   597                           ; Switch size 1, requested type "simple"
   598                           ; Number of cases is 2, Range of values is 0 to 1
   599                           ; switch strategies available:
   600                           ; Name         Instructions Cycles
   601                           ; simple_byte            7     4 (average)
   602                           ;	Chosen strategy is simple_byte
   603  0001DA  5040               	movf	??_TMR0_vdInit,w,c
   604  0001DC  0A00               	xorlw	0	; case 0
   605  0001DE  B4D8               	btfsc	status,2,c
   606  0001E0  D7EE               	goto	l263
   607  0001E2  0A01               	xorlw	1	; case 1
   608  0001E4  B4D8               	btfsc	status,2,c
   609  0001E6  D7EE               	goto	l265
   610  0001E8                     l1266:
   611  0001E8  FFFF               	dw	65535	; assembler added errata NOP
   612                           
   613                           ;TMR0.c: 47:     T0CONbits.T0PS = prescaler_value;
   614  0001EA  50D5               	movf	4053,w,c	;volatile
   615  0001EC  183F               	xorwf	TMR0_vdInit@prescaler_value,w,c
   616  0001EE  0BF8               	andlw	-8
   617  0001F0  183F               	xorwf	TMR0_vdInit@prescaler_value,w,c
   618  0001F2  6ED5               	movwf	4053,c	;volatile
   619                           
   620                           ;TMR0.c: 49:     T0CONbits.TMR0ON = 1;
   621  0001F4  8ED5               	bsf	4053,7,c	;volatile
   622  0001F6  0012               	return		;funcret
   623  0001F8  FFFF               	dw	65535	; errata NOP
   624  0001FA                     __end_of_TMR0_vdInit:
   625                           	opt callstack 0
   626                           
   627 ;; *************** function _INT_vdinit *****************
   628 ;; Defined at:
   629 ;;		line 17 in file "INT.c"
   630 ;; Parameters:    Size  Location     Type
   631 ;;		None
   632 ;; Auto vars:     Size  Location     Type
   633 ;;		None
   634 ;; Return value:  Size  Location     Type
   635 ;;                  1    wreg      void 
   636 ;; Registers used:
   637 ;;		None
   638 ;; Tracked objects:
   639 ;;		On entry : 0/0
   640 ;;		On exit  : 0/0
   641 ;;		Unchanged: 0/0
   642 ;; Data sizes:     COMRAM   BANK0   BANK1   BANK2   BANK3   BANK4   BANK5
   643 ;;      Params:         0       0       0       0       0       0       0
   644 ;;      Locals:         0       0       0       0       0       0       0
   645 ;;      Temps:          0       0       0       0       0       0       0
   646 ;;      Totals:         0       0       0       0       0       0       0
   647 ;;Total ram usage:        0 bytes
   648 ;; Hardware stack levels used:    1
   649 ;; Hardware stack levels required when called:    1
   650 ;; This function calls:
   651 ;;		Nothing
   652 ;; This function is called by:
   653 ;;		_main
   654 ;; This function uses a non-reentrant model
   655 ;;
   656                           
   657                           	psect	text2
   658  0002E4                     __ptext2:
   659                           	opt callstack 0
   660  0002E4                     _INT_vdinit:
   661                           	opt callstack 0
   662  0002E4  FFFF               	dw	65535	; assembler added errata NOP
   663                           
   664                           ;INT.c: 18:     INTCON1bits.GIE = 1;
   665                           
   666                           ;incstack = 0
   667  0002E6  8EF2               	bsf	4082,7,c	;volatile
   668                           
   669                           ;INT.c: 21:     INTCON1bits.INT0IE = 0;
   670  0002E8  98F2               	bcf	4082,4,c	;volatile
   671                           
   672                           ;INT.c: 22:     INTCON3bits.INT1IE = 0;
   673  0002EA  96F0               	bcf	4080,3,c	;volatile
   674                           
   675                           ;INT.c: 23:     INTCON3bits.INT2IE = 0;
   676  0002EC  98F0               	bcf	4080,4,c	;volatile
   677                           
   678                           ;INT.c: 25:     INTCON2bits.INTEDG0 = 1;
   679  0002EE  8CF1               	bsf	4081,6,c	;volatile
   680                           
   681                           ;INT.c: 26:     INTCON2bits.INTEDG1 = 1;
   682  0002F0  8AF1               	bsf	4081,5,c	;volatile
   683                           
   684                           ;INT.c: 27:     INTCON2bits.INTEDG2 = 1;
   685  0002F2  88F1               	bsf	4081,4,c	;volatile
   686                           
   687                           ;INT.c: 30:     INTCON1bits.RBIE = 1;
   688  0002F4  86F2               	bsf	4082,3,c	;volatile
   689                           
   690                           ;INT.c: 33:     INTCON1bits.TMR0IE = 1;
   691  0002F6  8AF2               	bsf	4082,5,c	;volatile
   692  0002F8  0012               	return		;funcret
   693  0002FA  FFFF               	dw	65535	; errata NOP
   694  0002FC                     __end_of_INT_vdinit:
   695                           	opt callstack 0
   696                           
   697 ;; *************** function _DIO_vdInit *****************
   698 ;; Defined at:
   699 ;;		line 15 in file "DIO.c"
   700 ;; Parameters:    Size  Location     Type
   701 ;;  dev             2    5[COMRAM] PTR struct .
   702 ;;		 -> BTN0(7), LED2(7), LED1(7), LED0(7), 
   703 ;; Auto vars:     Size  Location     Type
   704 ;;		None
   705 ;; Return value:  Size  Location     Type
   706 ;;                  1    wreg      void 
   707 ;; Registers used:
   708 ;;		wreg, fsr2l, fsr2h, status,2, status,0, cstack
   709 ;; Tracked objects:
   710 ;;		On entry : 0/0
   711 ;;		On exit  : 0/0
   712 ;;		Unchanged: 0/0
   713 ;; Data sizes:     COMRAM   BANK0   BANK1   BANK2   BANK3   BANK4   BANK5
   714 ;;      Params:         2       0       0       0       0       0       0
   715 ;;      Locals:         0       0       0       0       0       0       0
   716 ;;      Temps:          0       0       0       0       0       0       0
   717 ;;      Totals:         2       0       0       0       0       0       0
   718 ;;Total ram usage:        2 bytes
   719 ;; Hardware stack levels used:    1
   720 ;; Hardware stack levels required when called:    2
   721 ;; This function calls:
   722 ;;		_DIO_vdWriteDirPin
   723 ;; This function is called by:
   724 ;;		_main
   725 ;; This function uses a non-reentrant model
   726 ;;
   727                           
   728                           	psect	text3
   729  000288                     __ptext3:
   730                           	opt callstack 0
   731  000288                     _DIO_vdInit:
   732                           	opt callstack 0
   733  000288  FFFF               	dw	65535	; assembler added errata NOP
   734                           
   735                           ;DIO.c: 16:     DIO_vdWriteDirPin(dev->mode,dev->PORT,dev->pin);
   736                           
   737                           ;incstack = 0
   738  00028A  C041  FFD9         	movff	DIO_vdInit@dev,fsr2l
   739  00028E  C042  FFDA         	movff	DIO_vdInit@dev+1,fsr2h
   740  000292  50DF               	movf	indf2,w,c
   741  000294  6E3C               	movwf	DIO_vdWriteDirPin@port,c
   742  000296  EE20 F001          	lfsr	2,1
   743  00029A  5041               	movf	DIO_vdInit@dev,w,c
   744  00029C  26D9               	addwf	fsr2l,f,c
   745  00029E  5042               	movf	DIO_vdInit@dev+1,w,c
   746  0002A0  22DA               	addwfc	fsr2h,f,c
   747  0002A2  50DF               	movf	indf2,w,c
   748  0002A4  6E3D               	movwf	DIO_vdWriteDirPin@pin,c
   749  0002A6  EE20 F002          	lfsr	2,2
   750  0002AA  5041               	movf	DIO_vdInit@dev,w,c
   751  0002AC  26D9               	addwf	fsr2l,f,c
   752  0002AE  5042               	movf	DIO_vdInit@dev+1,w,c
   753  0002B0  22DA               	addwfc	fsr2h,f,c
   754  0002B2  50DF               	movf	indf2,w,c
   755  0002B4  EC16  F000         	call	_DIO_vdWriteDirPin
   756  0002B8  0012               	return		;funcret
   757  0002BA  FFFF               	dw	65535	; errata NOP
   758  0002BC                     __end_of_DIO_vdInit:
   759                           	opt callstack 0
   760                           
   761 ;; *************** function _DIO_vdWriteDirPin *****************
   762 ;; Defined at:
   763 ;;		line 45 in file "DIO.c"
   764 ;; Parameters:    Size  Location     Type
   765 ;;  data            1    wreg     unsigned char 
   766 ;;  port            1    0[COMRAM] unsigned char 
   767 ;;  pin             1    1[COMRAM] unsigned char 
   768 ;; Auto vars:     Size  Location     Type
   769 ;;  data            1    4[COMRAM] unsigned char 
   770 ;; Return value:  Size  Location     Type
   771 ;;                  1    wreg      void 
   772 ;; Registers used:
   773 ;;		wreg, status,2, status,0
   774 ;; Tracked objects:
   775 ;;		On entry : 0/0
   776 ;;		On exit  : 0/0
   777 ;;		Unchanged: 0/0
   778 ;; Data sizes:     COMRAM   BANK0   BANK1   BANK2   BANK3   BANK4   BANK5
   779 ;;      Params:         2       0       0       0       0       0       0
   780 ;;      Locals:         1       0       0       0       0       0       0
   781 ;;      Temps:          2       0       0       0       0       0       0
   782 ;;      Totals:         5       0       0       0       0       0       0
   783 ;;Total ram usage:        5 bytes
   784 ;; Hardware stack levels used:    1
   785 ;; Hardware stack levels required when called:    1
   786 ;; This function calls:
   787 ;;		Nothing
   788 ;; This function is called by:
   789 ;;		_DIO_vdInit
   790 ;; This function uses a non-reentrant model
   791 ;;
   792                           
   793                           	psect	text4
   794  00002C                     __ptext4:
   795                           	opt callstack 0
   796  00002C                     _DIO_vdWriteDirPin:
   797                           	opt callstack 0
   798  00002C  FFFF               	dw	65535	; assembler added errata NOP
   799                           
   800                           ;incstack = 0
   801                           ;DIO_vdWriteDirPin@data stored from wreg
   802  00002E  6E40               	movwf	DIO_vdWriteDirPin@data,c
   803                           
   804                           ;DIO.c: 46:  switch(port){
   805  000030  D06C               	goto	l1240
   806  000032                     l1220:
   807  000032  FFFF               	dw	65535	; assembler added errata NOP
   808                           
   809                           ;DIO.c: 48:    if(data){
   810  000034  5040               	movf	DIO_vdWriteDirPin@data,w,c
   811  000036  B4D8               	btfsc	status,2,c
   812  000038  D00F               	goto	l1224
   813                           
   814                           ;DIO.c: 49:     (*p_PORTAdirection).PORT |= (1<<pin);
   815  00003A  C03D  F03E         	movff	DIO_vdWriteDirPin@pin,??_DIO_vdWriteDirPin
   816  00003E  0E01               	movlw	1
   817  000040  6E3F               	movwf	(??_DIO_vdWriteDirPin+1)& (0+255),c
   818  000042  2A3E               	incf	??_DIO_vdWriteDirPin,f,c
   819  000044  D003               	goto	u414
   820  000046                     u415:
   821  000046  FFFF               	dw	65535	; assembler added errata NOP
   822  000048  90D8               	bcf	status,0,c
   823  00004A  363F               	rlcf	??_DIO_vdWriteDirPin+1,f,c
   824  00004C                     u414:
   825  00004C  FFFF               	dw	65535	; assembler added errata NOP
   826  00004E  2E3E               	decfsz	??_DIO_vdWriteDirPin,f,c
   827  000050  D7FA               	goto	u415
   828  000052  503F               	movf	??_DIO_vdWriteDirPin+1,w,c
   829  000054  1292               	iorwf	3986,f,c	;volatile
   830                           
   831                           ;DIO.c: 50:    }else{
   832  000056  D06B               	goto	l153
   833  000058                     l1224:
   834  000058  FFFF               	dw	65535	; assembler added errata NOP
   835                           
   836                           ;DIO.c: 51:     (*p_PORTAdirection).PORT &= ~(1<<pin);
   837  00005A  C03D  F03E         	movff	DIO_vdWriteDirPin@pin,??_DIO_vdWriteDirPin
   838  00005E  0E01               	movlw	1
   839  000060  6E3F               	movwf	(??_DIO_vdWriteDirPin+1)& (0+255),c
   840  000062  2A3E               	incf	??_DIO_vdWriteDirPin,f,c
   841  000064  D003               	goto	u424
   842  000066                     u425:
   843  000066  FFFF               	dw	65535	; assembler added errata NOP
   844  000068  90D8               	bcf	status,0,c
   845  00006A  363F               	rlcf	??_DIO_vdWriteDirPin+1,f,c
   846  00006C                     u424:
   847  00006C  FFFF               	dw	65535	; assembler added errata NOP
   848  00006E  2E3E               	decfsz	??_DIO_vdWriteDirPin,f,c
   849  000070  D7FA               	goto	u425
   850  000072  503F               	movf	??_DIO_vdWriteDirPin+1,w,c
   851  000074  0AFF               	xorlw	255
   852  000076  1692               	andwf	3986,f,c	;volatile
   853  000078  D05A               	goto	l153
   854  00007A                     l1226:
   855  00007A  FFFF               	dw	65535	; assembler added errata NOP
   856                           
   857                           ;DIO.c: 55:    if(data){
   858  00007C  5040               	movf	DIO_vdWriteDirPin@data,w,c
   859  00007E  B4D8               	btfsc	status,2,c
   860  000080  D00F               	goto	l1230
   861                           
   862                           ;DIO.c: 56:     (*p_PORTBdirection).PORT |= (1<<pin);
   863  000082  C03D  F03E         	movff	DIO_vdWriteDirPin@pin,??_DIO_vdWriteDirPin
   864  000086  0E01               	movlw	1
   865  000088  6E3F               	movwf	(??_DIO_vdWriteDirPin+1)& (0+255),c
   866  00008A  2A3E               	incf	??_DIO_vdWriteDirPin,f,c
   867  00008C  D003               	goto	u444
   868  00008E                     u445:
   869  00008E  FFFF               	dw	65535	; assembler added errata NOP
   870  000090  90D8               	bcf	status,0,c
   871  000092  363F               	rlcf	??_DIO_vdWriteDirPin+1,f,c
   872  000094                     u444:
   873  000094  FFFF               	dw	65535	; assembler added errata NOP
   874  000096  2E3E               	decfsz	??_DIO_vdWriteDirPin,f,c
   875  000098  D7FA               	goto	u445
   876  00009A  503F               	movf	??_DIO_vdWriteDirPin+1,w,c
   877  00009C  1293               	iorwf	3987,f,c	;volatile
   878                           
   879                           ;DIO.c: 57:     }else{
   880  00009E  D047               	goto	l153
   881  0000A0                     l1230:
   882  0000A0  FFFF               	dw	65535	; assembler added errata NOP
   883                           
   884                           ;DIO.c: 58:     (*p_PORTBdirection).PORT &= ~(1<<pin);
   885  0000A2  C03D  F03E         	movff	DIO_vdWriteDirPin@pin,??_DIO_vdWriteDirPin
   886  0000A6  0E01               	movlw	1
   887  0000A8  6E3F               	movwf	(??_DIO_vdWriteDirPin+1)& (0+255),c
   888  0000AA  2A3E               	incf	??_DIO_vdWriteDirPin,f,c
   889  0000AC  D003               	goto	u454
   890  0000AE                     u455:
   891  0000AE  FFFF               	dw	65535	; assembler added errata NOP
   892  0000B0  90D8               	bcf	status,0,c
   893  0000B2  363F               	rlcf	??_DIO_vdWriteDirPin+1,f,c
   894  0000B4                     u454:
   895  0000B4  FFFF               	dw	65535	; assembler added errata NOP
   896  0000B6  2E3E               	decfsz	??_DIO_vdWriteDirPin,f,c
   897  0000B8  D7FA               	goto	u455
   898  0000BA  503F               	movf	??_DIO_vdWriteDirPin+1,w,c
   899  0000BC  0AFF               	xorlw	255
   900  0000BE  1693               	andwf	3987,f,c	;volatile
   901  0000C0  D036               	goto	l153
   902  0000C2                     l1232:
   903  0000C2  FFFF               	dw	65535	; assembler added errata NOP
   904                           
   905                           ;DIO.c: 62:    if(data){
   906  0000C4  5040               	movf	DIO_vdWriteDirPin@data,w,c
   907  0000C6  B4D8               	btfsc	status,2,c
   908  0000C8  D00F               	goto	l1236
   909                           
   910                           ;DIO.c: 63:     (*p_PORTDdirection).PORT |= (1<<pin);
   911  0000CA  C03D  F03E         	movff	DIO_vdWriteDirPin@pin,??_DIO_vdWriteDirPin
   912  0000CE  0E01               	movlw	1
   913  0000D0  6E3F               	movwf	(??_DIO_vdWriteDirPin+1)& (0+255),c
   914  0000D2  2A3E               	incf	??_DIO_vdWriteDirPin,f,c
   915  0000D4  D003               	goto	u474
   916  0000D6                     u475:
   917  0000D6  FFFF               	dw	65535	; assembler added errata NOP
   918  0000D8  90D8               	bcf	status,0,c
   919  0000DA  363F               	rlcf	??_DIO_vdWriteDirPin+1,f,c
   920  0000DC                     u474:
   921  0000DC  FFFF               	dw	65535	; assembler added errata NOP
   922  0000DE  2E3E               	decfsz	??_DIO_vdWriteDirPin,f,c
   923  0000E0  D7FA               	goto	u475
   924  0000E2  503F               	movf	??_DIO_vdWriteDirPin+1,w,c
   925  0000E4  1295               	iorwf	3989,f,c	;volatile
   926                           
   927                           ;DIO.c: 64:     }else{
   928  0000E6  D023               	goto	l153
   929  0000E8                     l1236:
   930  0000E8  FFFF               	dw	65535	; assembler added errata NOP
   931                           
   932                           ;DIO.c: 65:     (*p_PORTDdirection).PORT &= ~(1<<pin);
   933  0000EA  C03D  F03E         	movff	DIO_vdWriteDirPin@pin,??_DIO_vdWriteDirPin
   934  0000EE  0E01               	movlw	1
   935  0000F0  6E3F               	movwf	(??_DIO_vdWriteDirPin+1)& (0+255),c
   936  0000F2  2A3E               	incf	??_DIO_vdWriteDirPin,f,c
   937  0000F4  D003               	goto	u484
   938  0000F6                     u485:
   939  0000F6  FFFF               	dw	65535	; assembler added errata NOP
   940  0000F8  90D8               	bcf	status,0,c
   941  0000FA  363F               	rlcf	??_DIO_vdWriteDirPin+1,f,c
   942  0000FC                     u484:
   943  0000FC  FFFF               	dw	65535	; assembler added errata NOP
   944  0000FE  2E3E               	decfsz	??_DIO_vdWriteDirPin,f,c
   945  000100  D7FA               	goto	u485
   946  000102  503F               	movf	??_DIO_vdWriteDirPin+1,w,c
   947  000104  0AFF               	xorlw	255
   948  000106  1695               	andwf	3989,f,c	;volatile
   949  000108  D012               	goto	l153
   950  00010A                     l1240:
   951  00010A  FFFF               	dw	65535	; assembler added errata NOP
   952  00010C  503C               	movf	DIO_vdWriteDirPin@port,w,c
   953  00010E  6E3E               	movwf	??_DIO_vdWriteDirPin& (0+255),c
   954  000110  6A3F               	clrf	(??_DIO_vdWriteDirPin+1)& (0+255),c
   955                           
   956                           ; Switch on 2 bytes has been partitioned into a top level switch of size 1, and 1 sub-sw
      +                          itches
   957                           ; Switch size 1, requested type "simple"
   958                           ; Number of cases is 1, Range of values is 0 to 0
   959                           ; switch strategies available:
   960                           ; Name         Instructions Cycles
   961                           ; simple_byte            4     3 (average)
   962                           ;	Chosen strategy is simple_byte
   963  000112  503F               	movf	??_DIO_vdWriteDirPin+1,w,c
   964  000114  0A00               	xorlw	0	; case 0
   965  000116  A4D8               	btfss	status,2,c
   966  000118  D00A               	goto	l153
   967                           
   968                           ; Switch size 1, requested type "simple"
   969                           ; Number of cases is 3, Range of values is 65 to 68
   970                           ; switch strategies available:
   971                           ; Name         Instructions Cycles
   972                           ; simple_byte           10     6 (average)
   973                           ;	Chosen strategy is simple_byte
   974  00011A  503E               	movf	??_DIO_vdWriteDirPin,w,c
   975  00011C  0A41               	xorlw	65	; case 65
   976  00011E  B4D8               	btfsc	status,2,c
   977  000120  D788               	goto	l1220
   978  000122  0A03               	xorlw	3	; case 66
   979  000124  B4D8               	btfsc	status,2,c
   980  000126  D7A9               	goto	l1226
   981  000128  0A06               	xorlw	6	; case 68
   982  00012A  B4D8               	btfsc	status,2,c
   983  00012C  D7CA               	goto	l1232
   984  00012E                     l153:
   985  00012E  FFFF               	dw	65535	; assembler added errata NOP
   986  000130  0012               	return		;funcret
   987  000132  FFFF               	dw	65535	; errata NOP
   988  000134                     __end_of_DIO_vdWriteDirPin:
   989                           	opt callstack 0
   990                           
   991 ;; *************** function _ISR *****************
   992 ;; Defined at:
   993 ;;		line 52 in file "INT.c"
   994 ;; Parameters:    Size  Location     Type
   995 ;;		None
   996 ;; Auto vars:     Size  Location     Type
   997 ;;		None
   998 ;; Return value:  Size  Location     Type
   999 ;;                  1    wreg      void 
  1000 ;; Registers used:
  1001 ;;		None
  1002 ;; Tracked objects:
  1003 ;;		On entry : 0/0
  1004 ;;		On exit  : 0/0
  1005 ;;		Unchanged: 0/0
  1006 ;; Data sizes:     COMRAM   BANK0   BANK1   BANK2   BANK3   BANK4   BANK5
  1007 ;;      Params:         0       0       0       0       0       0       0
  1008 ;;      Locals:         0       0       0       0       0       0       0
  1009 ;;      Temps:          0       0       0       0       0       0       0
  1010 ;;      Totals:         0       0       0       0       0       0       0
  1011 ;;Total ram usage:        0 bytes
  1012 ;; Hardware stack levels used:    1
  1013 ;; This function calls:
  1014 ;;		Nothing
  1015 ;; This function is called by:
  1016 ;;		Interrupt level 2
  1017 ;; This function uses a non-reentrant model
  1018 ;;
  1019                           
  1020                           	psect	intcode
  1021  000008                     __pintcode:
  1022                           	opt callstack 0
  1023  000008                     _ISR:
  1024                           	opt callstack 0
  1025  000008  FFFF               	dw	65535	; assembler added errata NOP
  1026                           
  1027                           ;incstack = 0
  1028  00000A  8243               	bsf	btemp,1,c	;set compiler interrupt flag (level 2)
  1029                           
  1030                           ;INT.c: 55:         callback_INT0();
  1031  00000C  B2F2               	btfsc	4082,1,c	;volatile
  1032                           
  1033                           ;INT.c: 56:         INT0IF = 0;
  1034  00000E  92F2               	bcf	4082,1,c	;volatile
  1035                           
  1036                           ;INT.c: 59:         callback_INT1();
  1037                           
  1038                           ;INT.c: 57:     }
  1039  000010  B0F0               	btfsc	4080,0,c	;volatile
  1040                           
  1041                           ;INT.c: 60:         INT1IF = 0;
  1042  000012  90F0               	bcf	4080,0,c	;volatile
  1043                           
  1044                           ;INT.c: 63:         callback_INT2();
  1045                           
  1046                           ;INT.c: 61:     }
  1047  000014  B2F0               	btfsc	4080,1,c	;volatile
  1048                           
  1049                           ;INT.c: 64:         INT2IF = 0;
  1050  000016  92F0               	bcf	4080,1,c	;volatile
  1051                           
  1052                           ;INT.c: 67:         callback_INTonChange();
  1053                           
  1054                           ;INT.c: 65:     }
  1055  000018  B0F2               	btfsc	4082,0,c	;volatile
  1056                           
  1057                           ;INT.c: 68:         RBIF = 0;
  1058  00001A  90F2               	bcf	4082,0,c	;volatile
  1059                           
  1060                           ;INT.c: 73:         callback_TMR0();
  1061                           
  1062                           ;INT.c: 69:     }
  1063  00001C  B4F2               	btfsc	4082,2,c	;volatile
  1064                           
  1065                           ;INT.c: 74:         TMR0IF = 0;
  1066  00001E  94F2               	bcf	4082,2,c	;volatile
  1067  000020  9243               	bcf	btemp,1,c	;clear compiler interrupt flag (level 2)
  1068  000022  0011               	retfie		f
  1069  000024  FFFF               	dw	65535	; errata NOP
  1070  000026                     __end_of_ISR:
  1071                           	opt callstack 0
  1072  000026  FFFF               	dw	65535	; assembler added errata NOP
  1073                           
  1074                           	psect	rparam
  1075  0000                     
  1076                           	psect	temp
  1077  000043                     btemp:
  1078                           	opt callstack 0
  1079  000043                     	ds	1
  1080  0000                     int$flags	set	btemp
  1081  0000                     wtemp8	set	btemp+1
  1082  0000                     ttemp5	set	btemp+1
  1083  0000                     ttemp6	set	btemp+4
  1084  0000                     ttemp7	set	btemp+8
  1085                           tosu	equ	0xFFF
  1086                           tosh	equ	0xFFE
  1087                           tosl	equ	0xFFD
  1088                           stkptr	equ	0xFFC
  1089                           pclatu	equ	0xFFB
  1090                           pclath	equ	0xFFA
  1091                           pcl	equ	0xFF9
  1092                           tblptru	equ	0xFF8
  1093                           tblptrh	equ	0xFF7
  1094                           tblptrl	equ	0xFF6
  1095                           tablat	equ	0xFF5
  1096                           prodh	equ	0xFF4
  1097                           prodl	equ	0xFF3
  1098                           indf0	equ	0xFEF
  1099                           postinc0	equ	0xFEE
  1100                           postdec0	equ	0xFED
  1101                           preinc0	equ	0xFEC
  1102                           plusw0	equ	0xFEB
  1103                           fsr0h	equ	0xFEA
  1104                           fsr0l	equ	0xFE9
  1105                           wreg	equ	0xFE8
  1106                           indf1	equ	0xFE7
  1107                           postinc1	equ	0xFE6
  1108                           postdec1	equ	0xFE5
  1109                           preinc1	equ	0xFE4
  1110                           plusw1	equ	0xFE3
  1111                           fsr1h	equ	0xFE2
  1112                           fsr1l	equ	0xFE1
  1113                           bsr	equ	0xFE0
  1114                           indf2	equ	0xFDF
  1115                           postinc2	equ	0xFDE
  1116                           postdec2	equ	0xFDD
  1117                           preinc2	equ	0xFDC
  1118                           plusw2	equ	0xFDB
  1119                           fsr2h	equ	0xFDA
  1120                           fsr2l	equ	0xFD9
  1121                           status	equ	0xFD8


Data Sizes:
    Strings     0
    Constant    0
    Data        40
    BSS         19
    Persistent  0
    Stack       0

Auto Spaces:
    Space          Size  Autos    Used
    COMRAM          126      7      66
    BANK0           128      0       0
    BANK1           256      0       0
    BANK2           256      0       0
    BANK3           256      0       0
    BANK4           256      0       0
    BANK5           256      0       0

Pointer List with Targets:

    INT@callback_TMR0	PTR FTN()void  size(2) Largest target is 1
		 -> Absolute function(), 

    INT@callback_INTonChange	PTR FTN()void  size(2) Largest target is 1
		 -> Absolute function(), 

    callback_INT2	PTR FTN()void  size(2) Largest target is 1
		 -> Absolute function(), 

    callback_INT1	PTR FTN()void  size(2) Largest target is 1
		 -> Absolute function(), 

    callback_INT0	PTR FTN()void  size(2) Largest target is 1
		 -> Absolute function(), 

    DIO_vdInit@dev	PTR struct . size(2) Largest target is 7
		 -> BTN0(COMRAM[7]), LED2(COMRAM[7]), LED1(COMRAM[7]), LED0(COMRAM[7]), 

    p_PORTDdirection	PTR volatile struct . size(2) Largest target is 1535
		 -> RAM(DATA[1535]), 

    p_PORTDdata	PTR volatile struct . size(2) Largest target is 1535
		 -> RAM(DATA[1535]), 

    p_PORTBdirection	PTR volatile struct . size(2) Largest target is 1535
		 -> RAM(DATA[1535]), 

    p_PORTBdata	PTR volatile struct . size(2) Largest target is 1535
		 -> RAM(DATA[1535]), 

    p_PORTAdirection	PTR volatile struct . size(2) Largest target is 1535
		 -> RAM(DATA[1535]), 

    p_PORTAdata	PTR volatile struct . size(2) Largest target is 1535
		 -> RAM(DATA[1535]), 


Critical Paths under _main in COMRAM

    _main->_DIO_vdInit
    _main->_TMR0_vdInit
    _DIO_vdInit->_DIO_vdWriteDirPin

Critical Paths under _ISR in COMRAM

    None.

Critical Paths under _main in BANK0

    None.

Critical Paths under _ISR in BANK0

    None.

Critical Paths under _main in BANK1

    None.

Critical Paths under _ISR in BANK1

    None.

Critical Paths under _main in BANK2

    None.

Critical Paths under _ISR in BANK2

    None.

Critical Paths under _main in BANK3

    None.

Critical Paths under _ISR in BANK3

    None.

Critical Paths under _main in BANK4

    None.

Critical Paths under _ISR in BANK4

    None.

Critical Paths under _main in BANK5

    None.

Critical Paths under _ISR in BANK5

    None.

Call Graph Tables:

 ---------------------------------------------------------------------------------
 (Depth) Function   	        Calls       Base Space   Used Autos Params    Refs
 ---------------------------------------------------------------------------------
 (0) _main                                                 0     0      0    1156
                         _DIO_vdInit
                         _INT_vdinit
                        _TMR0_vdInit
 ---------------------------------------------------------------------------------
 (1) _TMR0_vdInit                                          7     3      4     414
                                              0 COMRAM     7     3      4
 ---------------------------------------------------------------------------------
 (1) _INT_vdinit                                           0     0      0       0
 ---------------------------------------------------------------------------------
 (1) _DIO_vdInit                                           2     0      2     742
                                              5 COMRAM     2     0      2
                  _DIO_vdWriteDirPin
 ---------------------------------------------------------------------------------
 (2) _DIO_vdWriteDirPin                                    5     3      2     372
                                              0 COMRAM     5     3      2
 ---------------------------------------------------------------------------------
 Estimated maximum stack depth 2
 ---------------------------------------------------------------------------------
 (Depth) Function   	        Calls       Base Space   Used Autos Params    Refs
 ---------------------------------------------------------------------------------
 (3) _ISR                                                  0     0      0       0
 ---------------------------------------------------------------------------------
 Estimated maximum stack depth 3
 ---------------------------------------------------------------------------------

 Call Graph Graphs:

 _main (ROOT)
   _DIO_vdInit
     _DIO_vdWriteDirPin
   _INT_vdinit
   _TMR0_vdInit

 _ISR (ROOT)

 Address spaces:
Name               Size   Autos  Total    Cost      Usage
BIGRAM             5FF      0       0      17        0.0%
EEDATA             100      0       0       0        0.0%
BITBANK5           100      0       0      16        0.0%
BANK5              100      0       0      14        0.0%
BITBANK4           100      0       0      12        0.0%
BANK4              100      0       0      13        0.0%
BITBANK3           100      0       0      10        0.0%
BANK3              100      0       0      11        0.0%
BITBANK2           100      0       0       8        0.0%
BANK2              100      0       0       9        0.0%
BITBANK1           100      0       0       6        0.0%
BANK1              100      0       0       7        0.0%
BITBANK0            80      0       0       4        0.0%
BANK0               80      0       0       5        0.0%
BITCOMRAM           7E      0       0       0        0.0%
COMRAM              7E      7      42       1       52.4%
BITSFR               0      0       0     200        0.0%
SFR                  0      0       0     200        0.0%
STACK                0      0       0       2        0.0%
NULL                 0      0       0       0        0.0%
ABS                  0      0      42      15        0.0%
DATA                 0      0      42       3        0.0%
CODE                 0      0       0       0        0.0%


Microchip Technology PIC18 Macro Assembler V2.05 build -831301201 
Symbol Table                                                                                   Tue Dec 17 09:26:39 2019

                                                 ?_DIO_vdInit 0041  
                                                 __CFG_BOR$ON 000000  
                                           _DIO_vdWriteDirPin 002C  
                                                __CFG_CP0$OFF 000000  
                                                __CFG_CP1$OFF 000000  
                                                __CFG_CP2$OFF 000000  
                                                __CFG_CP3$OFF 000000  
                                                 __CFG_OSC$XT 000000  
                                          ?_DIO_vdWriteDirPin 003C  
                                                         l153 012E  
                                                         l251 013A  
                                                         l261 0198  
                                                         l253 0140  
                                                         l263 01BE  
                                                         l255 0166  
                                                         l265 01C4  
                                                         l257 016C  
                                                         l259 0192  
                                                __CFG_CPB$OFF 000000  
                                                         u414 004C  
                                                         u415 0046  
                                                         u424 006C  
                                                         u425 0066  
                                                __CFG_CPD$OFF 000000  
                                                         u444 0094  
                                                         _ISR 0008  
                                                         u445 008E  
                                                         u454 00B4  
                                                         u455 00AE  
                                                         u474 00DC  
                                                         u475 00D6  
                                                         u484 00FC  
                                                         u485 00F6  
                                                __CFG_BORV$20 000000  
                                                         wreg 000FE8  
                                         ??_DIO_vdWriteDirPin 003E  
                                                __CFG_LVP$OFF 000000  
                                                        ?_ISR 003C  
                                                __CFG_WDT$OFF 000000  
                                                        l1220 0032  
                                                        l1230 00A0  
                                                        l1232 00C2  
                                                        l1224 0058  
                                                        l1240 010A  
                                                        l1226 007A  
                                                        l1236 00E8  
                                                        l1260 019E  
                                                        l1252 0146  
                                                        l1264 01CA  
                                                        l1256 0172  
                                                        l1266 01E8  
                                                        l1292 0246  
                                                        _LED0 0022  
                                                        _BTN0 000D  
                                                        _LED1 001B  
                                                        _LED2 0014  
                                                        _RBIF 007F90  
                                                __CFG_STVR$ON 000000  
                                                        _main 01FA  
                                                        fsr2h 000FDA  
                                                        indf2 000FDF  
                                                        fsr1l 000FE1  
                                                        fsr2l 000FD9  
                                                        btemp 0043  
                                                        start 0028  
                                                ___param_bank 000000  
                                   __end_of_DIO_vdWriteDirPin 0134  
                                                       ??_ISR 003C  
                                               __CFG_OSCS$OFF 000000  
                                                 ?_INT_vdinit 003C  
                                                       ?_main 003C  
                                                       _TMR0L 000FD6  
                                                       _PORTB 000F81  
                                               __CFG_PWRT$OFF 000000  
                                               __CFG_WRT0$OFF 000000  
                                               __CFG_WRT1$OFF 000000  
                                               __CFG_WRT2$OFF 000000  
                                               __CFG_WRT3$OFF 000000  
                                              __CFG_EBTR0$OFF 000000  
                                              __CFG_EBTR1$OFF 000000  
                                              __CFG_EBTR2$OFF 000000  
                                              __CFG_EBTR3$OFF 000000  
                                               __CFG_WRTB$OFF 000000  
                                               __CFG_WRTC$OFF 000000  
                                               __CFG_WRTD$OFF 000000  
                                              __CFG_EBTRB$OFF 000000  
                                         __size_of_DIO_vdInit 0034  
                                                       tablat 000FF5  
                                                       ttemp5 0044  
                                                       ttemp6 0047  
                                                       ttemp7 004B  
                                                       status 000FD8  
                                                       wtemp8 0044  
                                            _p_PORTAdirection 0009  
                                            _p_PORTBdirection 0005  
                                             __initialization 024E  
                                                __end_of_main 024E  
                                            _p_PORTDdirection 0001  
                                                      ??_main 0043  
                                               __activetblptr 000002  
                                             __CFG_CCP2MUX$ON 000000  
                                                      _INT0IF 007F91  
                                                      _INT1IF 007F80  
                                                      _INT2IF 007F81  
                                                      _TMR0IF 007F92  
                                              __CFG_WDTPS$128 000000  
                                         __size_of_INT_vdinit 0018  
                                  __size_of_DIO_vdWriteDirPin 0108  
                                                      clear_0 0274  
                                                ?_TMR0_vdInit 003C  
                                                __pdataCOMRAM 0001  
                                                      tblptrh 000FF7  
                                                      tblptrl 000FF6  
                                                      tblptru 000FF8  
                                               DIO_vdInit@dev 0041  
                                                  __accesstop 0080  
                                     __end_of__initialization 027A  
                                               ___rparam_used 000001  
                                              __pcstackCOMRAM 003C  
                                                ??_DIO_vdInit 0043  
                                            INT@callback_TMR0 0031  
                                          __end_of_DIO_vdInit 02BC  
                                                ??_INT_vdinit 003C  
                                          __end_of_INT_vdinit 02FC  
                                                     __Hparam 0000  
                                                     __Lparam 0000  
                                                     __pcinit 024E  
                                                     __ramtop 0600  
                                                     __ptext0 01FA  
                                                     __ptext1 0134  
                                                     __ptext2 02E4  
                                                     __ptext3 0288  
                                                     __ptext4 002C  
                                               _callback_INT0 0039  
                                               _callback_INT1 0037  
                                               _callback_INT2 0035  
                                                   _T0CONbits 000FD5  
                                                __size_of_ISR 001E  
                                        __size_of_TMR0_vdInit 00C6  
                                        end_of_initialization 027A  
                                               __Lmediumconst 0000  
                                                   _BTNstatus 0029  
                                                     postdec1 000FE5  
                                                     postinc0 000FEE  
                                             TMR0_vdInit@edge 003D  
                                             TMR0_vdInit@bits 003C  
                                             TMR0_vdInit@mode 0042  
                                       DIO_vdWriteDirPin@data 0040  
                                               __pidataCOMRAM 02BC  
                                       DIO_vdWriteDirPin@port 003C  
                                         start_initialization 024E  
                                                 __end_of_ISR 0026  
                                                 _p_PORTAdata 000B  
                                                 _p_PORTBdata 0007  
                                                 _p_PORTDdata 0003  
                                        callback_TMR0@counter 003B  
                                                 __pbssCOMRAM 0029  
                                                   __pintcode 0008  
                                               ??_TMR0_vdInit 0040  
                                                 _INTCON1bits 000FF2  
                                                 _INTCON2bits 000FF1  
                                                 _INTCON3bits 000FF0  
                                        DIO_vdWriteDirPin@pin 003D  
                                                   copy_data0 0262  
                                                    __Hrparam 0000  
                                                    __Lrparam 0000  
                                  TMR0_vdInit@prescaler_value 003F  
                                         __end_of_TMR0_vdInit 01FA  
                                               __size_of_main 0054  
                                     INT@callback_INTonChange 0033  
                                                  _DIO_vdInit 0288  
                                                    int$flags 0043  
                                                    intlevel2 02FC  
                                                  _INT_vdinit 02E4  
                                                 _TMR0_vdInit 0134  
                                        TMR0_vdInit@prescaler 003E  
