

Microchip MPLAB XC8 Assembler V2.10 build 88905656 
                                                                                               Sat Nov 09 19:49:17 2019

Microchip MPLAB XC8 C Compiler v2.10 (Free license) build 20190730164152 Og1 
     1                           	processor	18F452
     2                           	fnconf	rparam,??,?,0
     3                           	opt	pw 120
     4                           	opt	flic
     5                           	psect	idataCOMRAM,global,class=CODE,delta=1,noexec
     6                           	psect	cinit,global,reloc=2,class=CODE,delta=1
     7                           	psect	bssCOMRAM,global,class=COMRAM,space=1,delta=1,noexec
     8                           	psect	dataCOMRAM,global,class=COMRAM,space=1,delta=1,noexec
     9                           	psect	cstackCOMRAM,global,class=COMRAM,space=1,delta=1,noexec
    10                           	psect	text0,global,reloc=2,class=CODE,delta=1
    11                           	psect	text1,global,reloc=2,class=CODE,delta=1
    12                           	psect	text2,global,reloc=2,class=CODE,delta=1
    13                           	psect	text3,global,reloc=2,class=CODE,delta=1
    14                           	psect	text4,global,reloc=2,class=CODE,delta=1
    15                           	psect	text5,global,reloc=2,class=CODE,delta=1
    16                           	psect	text6,global,reloc=2,class=CODE,delta=1
    17                           	psect	text7,global,reloc=2,class=CODE,delta=1
    18                           	psect	intsave_regs,global,class=BIGRAM,space=1,delta=1,noexec
    19                           	psect	rparam,global,class=COMRAM,space=1,delta=1,noexec
    20  0000                     
    21                           ; Version 2.10
    22                           ; Generated 31/07/2019 GMT
    23                           ; 
    24                           ; Copyright © 2019, Microchip Technology Inc. and its subsidiaries ("Microchip")
    25                           ; All rights reserved.
    26                           ; 
    27                           ; This software is developed by Microchip Technology Inc. and its subsidiaries ("Microch
      +                          ip").
    28                           ; 
    29                           ; Redistribution and use in source and binary forms, with or without modification, are
    30                           ; permitted provided that the following conditions are met:
    31                           ; 
    32                           ;     1. Redistributions of source code must retain the above copyright notice, this lis
      +                          t of
    33                           ;        conditions and the following disclaimer.
    34                           ; 
    35                           ;     2. Redistributions in binary form must reproduce the above copyright notice, this 
      +                          list
    36                           ;        of conditions and the following disclaimer in the documentation and/or other
    37                           ;        materials provided with the distribution.
    38                           ; 
    39                           ;     3. Microchip's name may not be used to endorse or promote products derived from th
      +                          is
    40                           ;        software without specific prior written permission.
    41                           ; 
    42                           ; THIS SOFTWARE IS PROVIDED BY MICROCHIP "AS IS" AND ANY EXPRESS OR IMPLIED WARRANTIES,
    43                           ; INCLUDING, BUT NOT LIMITED TO, THE IMPLIED WARRANTIES OF MERCHANTABILITY AND FITNESS F
      +                          OR
    44                           ; PURPOSE ARE DISCLAIMED.  IN NO EVENT SHALL MICROCHIP BE LIABLE FOR ANY DIRECT, INDIREC
      +                          T,
    45                           ; INCIDENTAL, SPECIAL, EXEMPLARY, OR CONSEQUENTIAL DAMAGES (INCLUDING BUT NOT LIMITED TO
    46                           ; PROCUREMENT OF SUBSTITUTE GOODS OR SERVICES; LOSS OF USE, DATA OR PROFITS; OR BUSINESS
    47                           ; INTERRUPTION) HOWSOEVER CAUSED AND ON ANY THEORY OF LIABILITY, WHETHER IN CONTRACT, ST
      +                          RICT
    48                           ; LIABILITY, OR TORT (INCLUDING NEGLIGENCE OR OTHERWISE) ARISING IN ANY WAY OUT OF THE U
      +                          SE OF
    49                           ; THIS SOFTWARE, EVEN IF ADVISED OF THE POSSIBILITY OF SUCH DAMAGE.
    50                           ; 
    51                           ; 
    52                           ; Code-generator required, PIC18F452 Definitions
    53                           ; 
    54                           ; SFR Addresses
    55  0000                     
    56                           	psect	idataCOMRAM
    57  003C24                     __pidataCOMRAM:
    58                           	opt callstack 0
    59                           
    60                           ;initializer for _p_PORTBdirection
    61  003C24  93                 	db	147
    62  003C25  0F                 	db	15
    63                           
    64                           ;initializer for _p_PORTBdata
    65  003C26  81                 	db	129
    66  003C27  0F                 	db	15
    67                           
    68                           ;initializer for _p_PORTAdirection
    69  003C28  92                 	db	146
    70  003C29  0F                 	db	15
    71                           
    72                           ;initializer for _p_PORTAdata
    73  003C2A  80                 	db	128
    74  003C2B  0F                 	db	15
    75                           
    76                           ;initializer for _BTN0
    77  003C2C  42                 	db	66
    78  003C2D  01                 	db	1
    79  003C2E  01                 	db	1
    80  003C2F  00                 	db	0
    81  003C30  00                 	db	0
    82  003C31  00                 	db	0
    83  003C32  00                 	db	0
    84                           
    85                           ;initializer for _LED0
    86  003C33  42                 	db	66
    87  003C34  00                 	db	0
    88  003C35  00                 	db	0
    89  003C36  00                 	db	0
    90  003C37  00                 	db	0
    91  003C38  00                 	db	0
    92  003C39  00                 	db	0
    93                           
    94                           ; #config settings
    95  0000                     
    96                           	psect	cinit
    97  003C92                     __pcinit:
    98                           	opt callstack 0
    99  003C92                     start_initialization:
   100                           	opt callstack 0
   101  003C92                     __initialization:
   102                           	opt callstack 0
   103                           
   104                           ; Initialize objects allocated to COMRAM (22 bytes)
   105                           ; load TBLPTR registers with __pidataCOMRAM
   106  003C92  0E24               	movlw	low __pidataCOMRAM
   107  003C94  6EF6               	movwf	tblptrl,c
   108  003C96  0E3C               	movlw	high __pidataCOMRAM
   109  003C98  6EF7               	movwf	tblptrh,c
   110  003C9A  0E00               	movlw	low (__pidataCOMRAM shr (0+16))
   111  003C9C  6EF8               	movwf	tblptru,c
   112  003C9E  EE00  F001         	lfsr	0,__pdataCOMRAM
   113  003CA2  EE10 F016          	lfsr	1,22
   114  003CA6                     copy_data0:
   115  003CA6  0009               	tblrd		*+
   116  003CA8  CFF5 FFEE          	movff	tablat,postinc0
   117  003CAC  50E5               	movf	postdec1,w,c
   118  003CAE  50E1               	movf	fsr1l,w,c
   119  003CB0  E1FA               	bnz	copy_data0
   120                           
   121                           ; Clear objects allocated to COMRAM (8 bytes)
   122  003CB2  EE00  F023         	lfsr	0,__pbssCOMRAM
   123  003CB6  0E08               	movlw	8
   124  003CB8                     clear_0:
   125  003CB8  6AEE               	clrf	postinc0,c
   126  003CBA  06E8               	decf	wreg,f,c
   127  003CBC  E1FD               	bnz	clear_0
   128  003CBE                     end_of_initialization:
   129                           	opt callstack 0
   130  003CBE                     __end_of__initialization:
   131                           	opt callstack 0
   132  003CBE  0E00               	movlw	low (__Lmediumconst shr (0+16))
   133  003CC0  6EF8               	movwf	tblptru,c
   134  003CC2  0100               	movlb	0
   135  003CC4  EF64  F01E         	goto	_main	;jump to C main() function
   136                           
   137                           	psect	bssCOMRAM
   138  000023                     __pbssCOMRAM:
   139                           	opt callstack 0
   140  000023                     	ds	8
   141                           
   142                           	psect	dataCOMRAM
   143  000001                     __pdataCOMRAM:
   144                           	opt callstack 0
   145  000001                     _p_PORTBdirection:
   146                           	opt callstack 0
   147  000001                     	ds	2
   148  000003                     _p_PORTBdata:
   149                           	opt callstack 0
   150  000003                     	ds	2
   151  000005                     _p_PORTAdirection:
   152                           	opt callstack 0
   153  000005                     	ds	2
   154  000007                     _p_PORTAdata:
   155                           	opt callstack 0
   156  000007                     	ds	2
   157  000009                     _BTN0:
   158                           	opt callstack 0
   159  000009                     	ds	7
   160  000010                     _LED0:
   161                           	opt callstack 0
   162  000010                     	ds	7
   163                           
   164                           	psect	cstackCOMRAM
   165  000017                     __pcstackCOMRAM:
   166                           	opt callstack 0
   167  000017                     DIO_vdWritePin@port:
   168                           	opt callstack 0
   169  000017                     DIO_vdWriteDirPin@port:
   170                           	opt callstack 0
   171  000017                     DIO_u8ReadPin@pin:
   172                           	opt callstack 0
   173                           
   174                           ; 1 bytes @ 0x0
   175  000017                     	ds	1
   176  000018                     ??_DIO_u8ReadPin:
   177  000018                     DIO_vdWritePin@pin:
   178                           	opt callstack 0
   179  000018                     DIO_vdWriteDirPin@pin:
   180                           	opt callstack 0
   181                           
   182                           ; 1 bytes @ 0x1
   183  000018                     	ds	1
   184  000019                     ??_DIO_vdWriteDirPin:
   185  000019                     ??_DIO_vdWritePin:
   186                           
   187                           ; 1 bytes @ 0x2
   188  000019                     	ds	1
   189  00001A                     DIO_u8ReadPin@port:
   190                           	opt callstack 0
   191                           
   192                           ; 1 bytes @ 0x3
   193  00001A                     	ds	1
   194  00001B                     DIO_vdWritePin@data:
   195                           	opt callstack 0
   196  00001B                     DIO_vdWriteDirPin@data:
   197                           	opt callstack 0
   198  00001B                     BTN_u8getStatus@btn:
   199                           	opt callstack 0
   200                           
   201                           ; 2 bytes @ 0x4
   202  00001B                     	ds	1
   203  00001C                     DIO_vdInit@dev:
   204                           	opt callstack 0
   205  00001C                     LED_vdOn@led:
   206                           	opt callstack 0
   207  00001C                     LED_vdOff@led:
   208                           	opt callstack 0
   209                           
   210                           ; 7 bytes @ 0x5
   211  00001C                     	ds	1
   212  00001D                     
   213                           ; 1 bytes @ 0x6
   214  00001D                     	ds	1
   215  00001E                     
   216                           ; 1 bytes @ 0x7
   217  00001E                     	ds	5
   218  000023                     
   219                           ; 1 bytes @ 0xC
   220 ;;
   221 ;;Main: autosize = 0, tempsize = 0, incstack = 0, save=0
   222 ;;
   223 ;; *************** function _main *****************
   224 ;; Defined at:
   225 ;;		line 21 in file "main.c"
   226 ;; Parameters:    Size  Location     Type
   227 ;;		None
   228 ;; Auto vars:     Size  Location     Type
   229 ;;		None
   230 ;; Return value:  Size  Location     Type
   231 ;;                  1    wreg      void 
   232 ;; Registers used:
   233 ;;		wreg, fsr0l, fsr0h, fsr2l, fsr2h, status,2, status,0, cstack
   234 ;; Tracked objects:
   235 ;;		On entry : 0/0
   236 ;;		On exit  : 0/0
   237 ;;		Unchanged: 0/0
   238 ;; Data sizes:     COMRAM   BANK0   BANK1   BANK2   BANK3   BANK4   BANK5
   239 ;;      Params:         0       0       0       0       0       0       0
   240 ;;      Locals:         0       0       0       0       0       0       0
   241 ;;      Temps:          0       0       0       0       0       0       0
   242 ;;      Totals:         0       0       0       0       0       0       0
   243 ;;Total ram usage:        0 bytes
   244 ;; Hardware stack levels required when called:    2
   245 ;; This function calls:
   246 ;;		_BTN_u8getStatus
   247 ;;		_DIO_vdInit
   248 ;;		_LED_vdOff
   249 ;;		_LED_vdOn
   250 ;; This function is called by:
   251 ;;		Startup code after reset
   252 ;; This function uses a non-reentrant model
   253 ;;
   254                           
   255                           	psect	text0
   256  003CC8                     __ptext0:
   257                           	opt callstack 0
   258  003CC8                     _main:
   259                           	opt callstack 29
   260  003CC8  FFFF               	dw	65535	; assembler added errata NOP
   261                           
   262                           ;main.c: 23:     DIO_vdInit(&LED0);
   263  003CCA  0E10               	movlw	low _LED0
   264  003CCC  6E1C               	movwf	DIO_vdInit@dev^0,c
   265  003CCE  0E00               	movlw	high _LED0
   266  003CD0  6E1D               	movwf	(DIO_vdInit@dev+1)^0,c
   267  003CD2  EC2F  F01E         	call	_DIO_vdInit	;wreg free
   268                           
   269                           ;main.c: 24:     DIO_vdInit(&BTN0);
   270  003CD6  0E09               	movlw	low _BTN0
   271  003CD8  6E1C               	movwf	DIO_vdInit@dev^0,c
   272  003CDA  0E00               	movlw	high _BTN0
   273  003CDC  6E1D               	movwf	(DIO_vdInit@dev+1)^0,c
   274  003CDE  EC2F  F01E         	call	_DIO_vdInit	;wreg free
   275  003CE2                     l25:
   276  003CE2  FFFF               	dw	65535	; assembler added errata NOP
   277                           
   278                           ;main.c: 27:         if(BTN_u8getStatus(&BTN0)){
   279  003CE4  0E09               	movlw	low _BTN0
   280  003CE6  6E1B               	movwf	BTN_u8getStatus@btn^0,c
   281  003CE8  0E00               	movlw	high _BTN0
   282  003CEA  6E1C               	movwf	(BTN_u8getStatus@btn+1)^0,c
   283  003CEC  EC1D  F01E         	call	_BTN_u8getStatus	;wreg free
   284  003CF0  0900               	iorlw	0
   285  003CF2  B4D8               	btfsc	status,2,c
   286  003CF4  EF7E  F01E         	goto	u441
   287  003CF8  EF81  F01E         	goto	u440
   288  003CFC                     u441:
   289  003CFC  FFFF               	dw	65535	; assembler added errata NOP
   290  003CFE  EF8F  F01E         	goto	l1068
   291  003D02                     u440:
   292  003D02  FFFF               	dw	65535	; assembler added errata NOP
   293  003D04                     
   294                           ;main.c: 28:             LED_vdOn(LED0);
   295  003D04  EE20  F010         	lfsr	2,_LED0
   296  003D08  EE00  F01C         	lfsr	0,LED_vdOn@led
   297  003D0C  0E06               	movlw	6
   298  003D0E                     u451:
   299  003D0E  CFDB FFEB          	movff	plusw2,plusw0
   300  003D12  06E8               	decf	wreg,f,c
   301  003D14  E2FC               	bc	u451
   302  003D16  EC08  F01E         	call	_LED_vdOn	;wreg free
   303                           
   304                           ;main.c: 29:         }else{
   305  003D1A  EF71  F01E         	goto	l25
   306  003D1E                     l1068:
   307  003D1E  FFFF               	dw	65535	; assembler added errata NOP
   308                           
   309                           ;main.c: 30:             LED_vdOff(LED0);
   310  003D20  EE20  F010         	lfsr	2,_LED0
   311  003D24  EE00  F01C         	lfsr	0,LED_vdOff@led
   312  003D28  0E06               	movlw	6
   313  003D2A                     u461:
   314  003D2A  CFDB FFEB          	movff	plusw2,plusw0
   315  003D2E  06E8               	decf	wreg,f,c
   316  003D30  E2FC               	bc	u461
   317  003D32  ECFE  F01D         	call	_LED_vdOff	;wreg free
   318  003D36  EF71  F01E         	goto	l25
   319  003D3A  EF01  F000         	goto	start
   320  003D3E                     __end_of_main:
   321                           	opt callstack 0
   322                           
   323 ;; *************** function _LED_vdOn *****************
   324 ;; Defined at:
   325 ;;		line 13 in file "LED.c"
   326 ;; Parameters:    Size  Location     Type
   327 ;;  led             7    5[COMRAM] struct .
   328 ;; Auto vars:     Size  Location     Type
   329 ;;		None
   330 ;; Return value:  Size  Location     Type
   331 ;;                  1    wreg      void 
   332 ;; Registers used:
   333 ;;		wreg, status,2, status,0, cstack
   334 ;; Tracked objects:
   335 ;;		On entry : 0/0
   336 ;;		On exit  : 0/0
   337 ;;		Unchanged: 0/0
   338 ;; Data sizes:     COMRAM   BANK0   BANK1   BANK2   BANK3   BANK4   BANK5
   339 ;;      Params:         7       0       0       0       0       0       0
   340 ;;      Locals:         0       0       0       0       0       0       0
   341 ;;      Temps:          0       0       0       0       0       0       0
   342 ;;      Totals:         7       0       0       0       0       0       0
   343 ;;Total ram usage:        7 bytes
   344 ;; Hardware stack levels used:    1
   345 ;; Hardware stack levels required when called:    1
   346 ;; This function calls:
   347 ;;		_DIO_vdWritePin
   348 ;; This function is called by:
   349 ;;		_main
   350 ;; This function uses a non-reentrant model
   351 ;;
   352                           
   353                           	psect	text1
   354  003C10                     __ptext1:
   355                           	opt callstack 0
   356  003C10                     _LED_vdOn:
   357                           	opt callstack 0
   358  003C10  FFFF               	dw	65535	; assembler added errata NOP
   359  003C12                     
   360                           ;LED.c: 14:  DIO_vdWritePin(1,led.PORT,led.pin);
   361  003C12  C01C  F017         	movff	LED_vdOn@led,DIO_vdWritePin@port
   362  003C16  C01D  F018         	movff	LED_vdOn@led+1,DIO_vdWritePin@pin
   363  003C1A  0E01               	movlw	1
   364  003C1C  EC80  F01F         	call	_DIO_vdWritePin
   365  003C20  0012               	return		;funcret
   366  003C22  FFFF               	dw	65535	; errata NOP
   367  003C24                     __end_of_LED_vdOn:
   368                           	opt callstack 0
   369                           
   370 ;; *************** function _LED_vdOff *****************
   371 ;; Defined at:
   372 ;;		line 17 in file "LED.c"
   373 ;; Parameters:    Size  Location     Type
   374 ;;  led             7    5[COMRAM] struct .
   375 ;; Auto vars:     Size  Location     Type
   376 ;;		None
   377 ;; Return value:  Size  Location     Type
   378 ;;                  1    wreg      void 
   379 ;; Registers used:
   380 ;;		wreg, status,2, status,0, cstack
   381 ;; Tracked objects:
   382 ;;		On entry : 0/0
   383 ;;		On exit  : 0/0
   384 ;;		Unchanged: 0/0
   385 ;; Data sizes:     COMRAM   BANK0   BANK1   BANK2   BANK3   BANK4   BANK5
   386 ;;      Params:         7       0       0       0       0       0       0
   387 ;;      Locals:         0       0       0       0       0       0       0
   388 ;;      Temps:          0       0       0       0       0       0       0
   389 ;;      Totals:         7       0       0       0       0       0       0
   390 ;;Total ram usage:        7 bytes
   391 ;; Hardware stack levels used:    1
   392 ;; Hardware stack levels required when called:    1
   393 ;; This function calls:
   394 ;;		_DIO_vdWritePin
   395 ;; This function is called by:
   396 ;;		_main
   397 ;; This function uses a non-reentrant model
   398 ;;
   399                           
   400                           	psect	text2
   401  003BFC                     __ptext2:
   402                           	opt callstack 0
   403  003BFC                     _LED_vdOff:
   404                           	opt callstack 0
   405  003BFC  FFFF               	dw	65535	; assembler added errata NOP
   406  003BFE                     
   407                           ;LED.c: 18:  DIO_vdWritePin(0,led.PORT,led.pin);
   408  003BFE  C01C  F017         	movff	LED_vdOff@led,DIO_vdWritePin@port
   409  003C02  C01D  F018         	movff	LED_vdOff@led+1,DIO_vdWritePin@pin
   410  003C06  0E00               	movlw	0
   411  003C08  EC80  F01F         	call	_DIO_vdWritePin
   412  003C0C  0012               	return		;funcret
   413  003C0E  FFFF               	dw	65535	; errata NOP
   414  003C10                     __end_of_LED_vdOff:
   415                           	opt callstack 0
   416                           
   417 ;; *************** function _DIO_vdWritePin *****************
   418 ;; Defined at:
   419 ;;		line 19 in file "DIO.c"
   420 ;; Parameters:    Size  Location     Type
   421 ;;  data            1    wreg     unsigned char 
   422 ;;  port            1    0[COMRAM] unsigned char 
   423 ;;  pin             1    1[COMRAM] unsigned char 
   424 ;; Auto vars:     Size  Location     Type
   425 ;;  data            1    4[COMRAM] unsigned char 
   426 ;; Return value:  Size  Location     Type
   427 ;;                  1    wreg      void 
   428 ;; Registers used:
   429 ;;		wreg, status,2, status,0
   430 ;; Tracked objects:
   431 ;;		On entry : 0/0
   432 ;;		On exit  : 0/0
   433 ;;		Unchanged: 0/0
   434 ;; Data sizes:     COMRAM   BANK0   BANK1   BANK2   BANK3   BANK4   BANK5
   435 ;;      Params:         2       0       0       0       0       0       0
   436 ;;      Locals:         1       0       0       0       0       0       0
   437 ;;      Temps:          2       0       0       0       0       0       0
   438 ;;      Totals:         5       0       0       0       0       0       0
   439 ;;Total ram usage:        5 bytes
   440 ;; Hardware stack levels used:    1
   441 ;; This function calls:
   442 ;;		Nothing
   443 ;; This function is called by:
   444 ;;		_LED_vdOn
   445 ;;		_LED_vdOff
   446 ;; This function uses a non-reentrant model
   447 ;;
   448                           
   449                           	psect	text3
   450  003F00                     __ptext3:
   451                           	opt callstack 0
   452  003F00                     _DIO_vdWritePin:
   453                           	opt callstack 0
   454  003F00  FFFF               	dw	65535	; assembler added errata NOP
   455                           
   456                           ;incstack = 0
   457                           ;DIO_vdWritePin@data stored from wreg
   458  003F02  6E1B               	movwf	DIO_vdWritePin@data^0,c
   459  003F04                     
   460                           ;DIO.c: 20:  switch(port){
   461  003F04  EFE6  F01F         	goto	l1026
   462  003F08                     l1012:
   463  003F08  FFFF               	dw	65535	; assembler added errata NOP
   464                           
   465                           ;DIO.c: 22:    if(data){
   466  003F0A  501B               	movf	DIO_vdWritePin@data^0,w,c
   467  003F0C  B4D8               	btfsc	status,2,c
   468  003F0E  EF8B  F01F         	goto	u321
   469  003F12  EF8E  F01F         	goto	u320
   470  003F16                     u321:
   471  003F16  FFFF               	dw	65535	; assembler added errata NOP
   472  003F18  EFA1  F01F         	goto	l1016
   473  003F1C                     u320:
   474  003F1C  FFFF               	dw	65535	; assembler added errata NOP
   475  003F1E                     
   476                           ;DIO.c: 23:     (*p_PORTAdata).PORT |= (1<<pin);
   477  003F1E  C018  F019         	movff	DIO_vdWritePin@pin,??_DIO_vdWritePin
   478  003F22  0E01               	movlw	1
   479  003F24  6E1A               	movwf	(??_DIO_vdWritePin+1)^0,c
   480  003F26  2A19               	incf	??_DIO_vdWritePin^0,f,c
   481  003F28  EF99  F01F         	goto	u334
   482  003F2C                     u335:
   483  003F2C  FFFF               	dw	65535	; assembler added errata NOP
   484  003F2E  90D8               	bcf	status,0,c
   485  003F30  361A               	rlcf	(??_DIO_vdWritePin+1)^0,f,c
   486  003F32                     u334:
   487  003F32  FFFF               	dw	65535	; assembler added errata NOP
   488  003F34  2E19               	decfsz	??_DIO_vdWritePin^0,f,c
   489  003F36  EF96  F01F         	goto	u335
   490  003F3A  501A               	movf	(??_DIO_vdWritePin+1)^0,w,c
   491  003F3C  1280               	iorwf	128,f,c	;volatile
   492                           
   493                           ;DIO.c: 24:    }else{
   494  003F3E  EFFD  F01F         	goto	l54
   495  003F42                     l1016:
   496  003F42  FFFF               	dw	65535	; assembler added errata NOP
   497                           
   498                           ;DIO.c: 25:     (*p_PORTAdata).PORT &= ~(1<<pin);
   499  003F44  C018  F019         	movff	DIO_vdWritePin@pin,??_DIO_vdWritePin
   500  003F48  0E01               	movlw	1
   501  003F4A  6E1A               	movwf	(??_DIO_vdWritePin+1)^0,c
   502  003F4C  2A19               	incf	??_DIO_vdWritePin^0,f,c
   503  003F4E  EFAC  F01F         	goto	u344
   504  003F52                     u345:
   505  003F52  FFFF               	dw	65535	; assembler added errata NOP
   506  003F54  90D8               	bcf	status,0,c
   507  003F56  361A               	rlcf	(??_DIO_vdWritePin+1)^0,f,c
   508  003F58                     u344:
   509  003F58  FFFF               	dw	65535	; assembler added errata NOP
   510  003F5A  2E19               	decfsz	??_DIO_vdWritePin^0,f,c
   511  003F5C  EFA9  F01F         	goto	u345
   512  003F60  501A               	movf	(??_DIO_vdWritePin+1)^0,w,c
   513  003F62  0AFF               	xorlw	255
   514  003F64  1680               	andwf	128,f,c	;volatile
   515  003F66  EFFD  F01F         	goto	l54
   516  003F6A                     l1018:
   517  003F6A  FFFF               	dw	65535	; assembler added errata NOP
   518                           
   519                           ;DIO.c: 29:    if(data){
   520  003F6C  501B               	movf	DIO_vdWritePin@data^0,w,c
   521  003F6E  B4D8               	btfsc	status,2,c
   522  003F70  EFBC  F01F         	goto	u351
   523  003F74  EFBF  F01F         	goto	u350
   524  003F78                     u351:
   525  003F78  FFFF               	dw	65535	; assembler added errata NOP
   526  003F7A  EFD2  F01F         	goto	l1022
   527  003F7E                     u350:
   528  003F7E  FFFF               	dw	65535	; assembler added errata NOP
   529  003F80                     
   530                           ;DIO.c: 30:     (*p_PORTBdata).PORT |= (1<<pin);
   531  003F80  C018  F019         	movff	DIO_vdWritePin@pin,??_DIO_vdWritePin
   532  003F84  0E01               	movlw	1
   533  003F86  6E1A               	movwf	(??_DIO_vdWritePin+1)^0,c
   534  003F88  2A19               	incf	??_DIO_vdWritePin^0,f,c
   535  003F8A  EFCA  F01F         	goto	u364
   536  003F8E                     u365:
   537  003F8E  FFFF               	dw	65535	; assembler added errata NOP
   538  003F90  90D8               	bcf	status,0,c
   539  003F92  361A               	rlcf	(??_DIO_vdWritePin+1)^0,f,c
   540  003F94                     u364:
   541  003F94  FFFF               	dw	65535	; assembler added errata NOP
   542  003F96  2E19               	decfsz	??_DIO_vdWritePin^0,f,c
   543  003F98  EFC7  F01F         	goto	u365
   544  003F9C  501A               	movf	(??_DIO_vdWritePin+1)^0,w,c
   545  003F9E  1281               	iorwf	129,f,c	;volatile
   546                           
   547                           ;DIO.c: 31:     }else{
   548  003FA0  EFFD  F01F         	goto	l54
   549  003FA4                     l1022:
   550  003FA4  FFFF               	dw	65535	; assembler added errata NOP
   551                           
   552                           ;DIO.c: 32:     (*p_PORTBdata).PORT &= ~(1<<pin);
   553  003FA6  C018  F019         	movff	DIO_vdWritePin@pin,??_DIO_vdWritePin
   554  003FAA  0E01               	movlw	1
   555  003FAC  6E1A               	movwf	(??_DIO_vdWritePin+1)^0,c
   556  003FAE  2A19               	incf	??_DIO_vdWritePin^0,f,c
   557  003FB0  EFDD  F01F         	goto	u374
   558  003FB4                     u375:
   559  003FB4  FFFF               	dw	65535	; assembler added errata NOP
   560  003FB6  90D8               	bcf	status,0,c
   561  003FB8  361A               	rlcf	(??_DIO_vdWritePin+1)^0,f,c
   562  003FBA                     u374:
   563  003FBA  FFFF               	dw	65535	; assembler added errata NOP
   564  003FBC  2E19               	decfsz	??_DIO_vdWritePin^0,f,c
   565  003FBE  EFDA  F01F         	goto	u375
   566  003FC2  501A               	movf	(??_DIO_vdWritePin+1)^0,w,c
   567  003FC4  0AFF               	xorlw	255
   568  003FC6  1681               	andwf	129,f,c	;volatile
   569  003FC8  EFFD  F01F         	goto	l54
   570  003FCC                     l1026:
   571  003FCC  FFFF               	dw	65535	; assembler added errata NOP
   572  003FCE  5017               	movf	DIO_vdWritePin@port^0,w,c
   573  003FD0  6E19               	movwf	??_DIO_vdWritePin^0,c
   574  003FD2  6A1A               	clrf	(??_DIO_vdWritePin+1)^0,c
   575                           
   576                           ; Switch on 2 bytes has been partitioned into a top level switch of size 1, and 1 sub-sw
      +                          itches
   577                           ; Switch size 1, requested type "simple"
   578                           ; Number of cases is 1, Range of values is 0 to 0
   579                           ; switch strategies available:
   580                           ; Name         Instructions Cycles
   581                           ; simple_byte            4     3 (average)
   582                           ;	Chosen strategy is simple_byte
   583  003FD4  501A               	movf	(??_DIO_vdWritePin+1)^0,w,c
   584  003FD6  0A00               	xorlw	0	; case 0
   585  003FD8  B4D8               	btfsc	status,2,c
   586  003FDA  EFF1  F01F         	goto	l1094
   587  003FDE  EFFD  F01F         	goto	l54
   588  003FE2                     l1094:
   589  003FE2  FFFF               	dw	65535	; assembler added errata NOP
   590                           
   591                           ; Switch size 1, requested type "simple"
   592                           ; Number of cases is 2, Range of values is 65 to 66
   593                           ; switch strategies available:
   594                           ; Name         Instructions Cycles
   595                           ; simple_byte            7     4 (average)
   596                           ;	Chosen strategy is simple_byte
   597  003FE4  5019               	movf	??_DIO_vdWritePin^0,w,c
   598  003FE6  0A41               	xorlw	65	; case 65
   599  003FE8  B4D8               	btfsc	status,2,c
   600  003FEA  EF84  F01F         	goto	l1012
   601  003FEE  0A03               	xorlw	3	; case 66
   602  003FF0  B4D8               	btfsc	status,2,c
   603  003FF2  EFB5  F01F         	goto	l1018
   604  003FF6  EFFD  F01F         	goto	l54
   605  003FFA                     l54:
   606  003FFA  FFFF               	dw	65535	; assembler added errata NOP
   607  003FFC  0012               	return		;funcret
   608  003FFE  FFFF               	dw	65535	; errata NOP
   609  004000                     __end_of_DIO_vdWritePin:
   610                           	opt callstack 0
   611                           
   612 ;; *************** function _DIO_vdInit *****************
   613 ;; Defined at:
   614 ;;		line 15 in file "DIO.c"
   615 ;; Parameters:    Size  Location     Type
   616 ;;  dev             2    5[COMRAM] PTR struct .
   617 ;;		 -> BTN0(7), LED0(7), 
   618 ;; Auto vars:     Size  Location     Type
   619 ;;		None
   620 ;; Return value:  Size  Location     Type
   621 ;;                  1    wreg      void 
   622 ;; Registers used:
   623 ;;		wreg, fsr2l, fsr2h, status,2, status,0, cstack
   624 ;; Tracked objects:
   625 ;;		On entry : 0/0
   626 ;;		On exit  : 0/0
   627 ;;		Unchanged: 0/0
   628 ;; Data sizes:     COMRAM   BANK0   BANK1   BANK2   BANK3   BANK4   BANK5
   629 ;;      Params:         2       0       0       0       0       0       0
   630 ;;      Locals:         0       0       0       0       0       0       0
   631 ;;      Temps:          0       0       0       0       0       0       0
   632 ;;      Totals:         2       0       0       0       0       0       0
   633 ;;Total ram usage:        2 bytes
   634 ;; Hardware stack levels used:    1
   635 ;; Hardware stack levels required when called:    1
   636 ;; This function calls:
   637 ;;		_DIO_vdWriteDirPin
   638 ;; This function is called by:
   639 ;;		_main
   640 ;; This function uses a non-reentrant model
   641 ;;
   642                           
   643                           	psect	text4
   644  003C5E                     __ptext4:
   645                           	opt callstack 0
   646  003C5E                     _DIO_vdInit:
   647                           	opt callstack 0
   648  003C5E  FFFF               	dw	65535	; assembler added errata NOP
   649  003C60                     
   650                           ;DIO.c: 16:     DIO_vdWriteDirPin(dev->mode,dev->PORT,dev->pin);
   651  003C60  C01C  FFD9         	movff	DIO_vdInit@dev,fsr2l
   652  003C64  C01D  FFDA         	movff	DIO_vdInit@dev+1,fsr2h
   653  003C68  50DF               	movf	indf2,w,c
   654  003C6A  6E17               	movwf	DIO_vdWriteDirPin@port^0,c
   655  003C6C  EE20 F001          	lfsr	2,1
   656  003C70  501C               	movf	DIO_vdInit@dev^0,w,c
   657  003C72  26D9               	addwf	fsr2l,f,c
   658  003C74  501D               	movf	(DIO_vdInit@dev+1)^0,w,c
   659  003C76  22DA               	addwfc	fsr2h,f,c
   660  003C78  50DF               	movf	indf2,w,c
   661  003C7A  6E18               	movwf	DIO_vdWriteDirPin@pin^0,c
   662  003C7C  EE20 F002          	lfsr	2,2
   663  003C80  501C               	movf	DIO_vdInit@dev^0,w,c
   664  003C82  26D9               	addwf	fsr2l,f,c
   665  003C84  501D               	movf	(DIO_vdInit@dev+1)^0,w,c
   666  003C86  22DA               	addwfc	fsr2h,f,c
   667  003C88  50DF               	movf	indf2,w,c
   668  003C8A  EC00  F01F         	call	_DIO_vdWriteDirPin
   669  003C8E  0012               	return		;funcret
   670  003C90  FFFF               	dw	65535	; errata NOP
   671  003C92                     __end_of_DIO_vdInit:
   672                           	opt callstack 0
   673                           
   674 ;; *************** function _DIO_vdWriteDirPin *****************
   675 ;; Defined at:
   676 ;;		line 38 in file "DIO.c"
   677 ;; Parameters:    Size  Location     Type
   678 ;;  data            1    wreg     unsigned char 
   679 ;;  port            1    0[COMRAM] unsigned char 
   680 ;;  pin             1    1[COMRAM] unsigned char 
   681 ;; Auto vars:     Size  Location     Type
   682 ;;  data            1    4[COMRAM] unsigned char 
   683 ;; Return value:  Size  Location     Type
   684 ;;                  1    wreg      void 
   685 ;; Registers used:
   686 ;;		wreg, status,2, status,0
   687 ;; Tracked objects:
   688 ;;		On entry : 0/0
   689 ;;		On exit  : 0/0
   690 ;;		Unchanged: 0/0
   691 ;; Data sizes:     COMRAM   BANK0   BANK1   BANK2   BANK3   BANK4   BANK5
   692 ;;      Params:         2       0       0       0       0       0       0
   693 ;;      Locals:         1       0       0       0       0       0       0
   694 ;;      Temps:          2       0       0       0       0       0       0
   695 ;;      Totals:         5       0       0       0       0       0       0
   696 ;;Total ram usage:        5 bytes
   697 ;; Hardware stack levels used:    1
   698 ;; This function calls:
   699 ;;		Nothing
   700 ;; This function is called by:
   701 ;;		_DIO_vdInit
   702 ;; This function uses a non-reentrant model
   703 ;;
   704                           
   705                           	psect	text5
   706  003E00                     __ptext5:
   707                           	opt callstack 0
   708  003E00                     _DIO_vdWriteDirPin:
   709                           	opt callstack 0
   710  003E00  FFFF               	dw	65535	; assembler added errata NOP
   711                           
   712                           ;incstack = 0
   713                           ;DIO_vdWriteDirPin@data stored from wreg
   714  003E02  6E1B               	movwf	DIO_vdWriteDirPin@data^0,c
   715  003E04                     
   716                           ;DIO.c: 39:  switch(port){
   717  003E04  EF66  F01F         	goto	l1004
   718  003E08                     l990:
   719  003E08  FFFF               	dw	65535	; assembler added errata NOP
   720                           
   721                           ;DIO.c: 41:    if(data){
   722  003E0A  501B               	movf	DIO_vdWriteDirPin@data^0,w,c
   723  003E0C  B4D8               	btfsc	status,2,c
   724  003E0E  EF0B  F01F         	goto	u261
   725  003E12  EF0E  F01F         	goto	u260
   726  003E16                     u261:
   727  003E16  FFFF               	dw	65535	; assembler added errata NOP
   728  003E18  EF21  F01F         	goto	l994
   729  003E1C                     u260:
   730  003E1C  FFFF               	dw	65535	; assembler added errata NOP
   731  003E1E                     
   732                           ;DIO.c: 42:     (*p_PORTAdirection).PORT |= (1<<pin);
   733  003E1E  C018  F019         	movff	DIO_vdWriteDirPin@pin,??_DIO_vdWriteDirPin
   734  003E22  0E01               	movlw	1
   735  003E24  6E1A               	movwf	(??_DIO_vdWriteDirPin+1)^0,c
   736  003E26  2A19               	incf	??_DIO_vdWriteDirPin^0,f,c
   737  003E28  EF19  F01F         	goto	u274
   738  003E2C                     u275:
   739  003E2C  FFFF               	dw	65535	; assembler added errata NOP
   740  003E2E  90D8               	bcf	status,0,c
   741  003E30  361A               	rlcf	(??_DIO_vdWriteDirPin+1)^0,f,c
   742  003E32                     u274:
   743  003E32  FFFF               	dw	65535	; assembler added errata NOP
   744  003E34  2E19               	decfsz	??_DIO_vdWriteDirPin^0,f,c
   745  003E36  EF16  F01F         	goto	u275
   746  003E3A  501A               	movf	(??_DIO_vdWriteDirPin+1)^0,w,c
   747  003E3C  1292               	iorwf	146,f,c	;volatile
   748                           
   749                           ;DIO.c: 43:    }else{
   750  003E3E  EF7D  F01F         	goto	l65
   751  003E42                     l994:
   752  003E42  FFFF               	dw	65535	; assembler added errata NOP
   753                           
   754                           ;DIO.c: 44:     (*p_PORTAdirection).PORT &= ~(1<<pin);
   755  003E44  C018  F019         	movff	DIO_vdWriteDirPin@pin,??_DIO_vdWriteDirPin
   756  003E48  0E01               	movlw	1
   757  003E4A  6E1A               	movwf	(??_DIO_vdWriteDirPin+1)^0,c
   758  003E4C  2A19               	incf	??_DIO_vdWriteDirPin^0,f,c
   759  003E4E  EF2C  F01F         	goto	u284
   760  003E52                     u285:
   761  003E52  FFFF               	dw	65535	; assembler added errata NOP
   762  003E54  90D8               	bcf	status,0,c
   763  003E56  361A               	rlcf	(??_DIO_vdWriteDirPin+1)^0,f,c
   764  003E58                     u284:
   765  003E58  FFFF               	dw	65535	; assembler added errata NOP
   766  003E5A  2E19               	decfsz	??_DIO_vdWriteDirPin^0,f,c
   767  003E5C  EF29  F01F         	goto	u285
   768  003E60  501A               	movf	(??_DIO_vdWriteDirPin+1)^0,w,c
   769  003E62  0AFF               	xorlw	255
   770  003E64  1692               	andwf	146,f,c	;volatile
   771  003E66  EF7D  F01F         	goto	l65
   772  003E6A                     l996:
   773  003E6A  FFFF               	dw	65535	; assembler added errata NOP
   774                           
   775                           ;DIO.c: 48:    if(data){
   776  003E6C  501B               	movf	DIO_vdWriteDirPin@data^0,w,c
   777  003E6E  B4D8               	btfsc	status,2,c
   778  003E70  EF3C  F01F         	goto	u291
   779  003E74  EF3F  F01F         	goto	u290
   780  003E78                     u291:
   781  003E78  FFFF               	dw	65535	; assembler added errata NOP
   782  003E7A  EF52  F01F         	goto	l1000
   783  003E7E                     u290:
   784  003E7E  FFFF               	dw	65535	; assembler added errata NOP
   785  003E80                     
   786                           ;DIO.c: 49:     (*p_PORTBdirection).PORT |= (1<<pin);
   787  003E80  C018  F019         	movff	DIO_vdWriteDirPin@pin,??_DIO_vdWriteDirPin
   788  003E84  0E01               	movlw	1
   789  003E86  6E1A               	movwf	(??_DIO_vdWriteDirPin+1)^0,c
   790  003E88  2A19               	incf	??_DIO_vdWriteDirPin^0,f,c
   791  003E8A  EF4A  F01F         	goto	u304
   792  003E8E                     u305:
   793  003E8E  FFFF               	dw	65535	; assembler added errata NOP
   794  003E90  90D8               	bcf	status,0,c
   795  003E92  361A               	rlcf	(??_DIO_vdWriteDirPin+1)^0,f,c
   796  003E94                     u304:
   797  003E94  FFFF               	dw	65535	; assembler added errata NOP
   798  003E96  2E19               	decfsz	??_DIO_vdWriteDirPin^0,f,c
   799  003E98  EF47  F01F         	goto	u305
   800  003E9C  501A               	movf	(??_DIO_vdWriteDirPin+1)^0,w,c
   801  003E9E  1293               	iorwf	147,f,c	;volatile
   802                           
   803                           ;DIO.c: 50:     }else{
   804  003EA0  EF7D  F01F         	goto	l65
   805  003EA4                     l1000:
   806  003EA4  FFFF               	dw	65535	; assembler added errata NOP
   807                           
   808                           ;DIO.c: 51:     (*p_PORTBdirection).PORT &= ~(1<<pin);
   809  003EA6  C018  F019         	movff	DIO_vdWriteDirPin@pin,??_DIO_vdWriteDirPin
   810  003EAA  0E01               	movlw	1
   811  003EAC  6E1A               	movwf	(??_DIO_vdWriteDirPin+1)^0,c
   812  003EAE  2A19               	incf	??_DIO_vdWriteDirPin^0,f,c
   813  003EB0  EF5D  F01F         	goto	u314
   814  003EB4                     u315:
   815  003EB4  FFFF               	dw	65535	; assembler added errata NOP
   816  003EB6  90D8               	bcf	status,0,c
   817  003EB8  361A               	rlcf	(??_DIO_vdWriteDirPin+1)^0,f,c
   818  003EBA                     u314:
   819  003EBA  FFFF               	dw	65535	; assembler added errata NOP
   820  003EBC  2E19               	decfsz	??_DIO_vdWriteDirPin^0,f,c
   821  003EBE  EF5A  F01F         	goto	u315
   822  003EC2  501A               	movf	(??_DIO_vdWriteDirPin+1)^0,w,c
   823  003EC4  0AFF               	xorlw	255
   824  003EC6  1693               	andwf	147,f,c	;volatile
   825  003EC8  EF7D  F01F         	goto	l65
   826  003ECC                     l1004:
   827  003ECC  FFFF               	dw	65535	; assembler added errata NOP
   828  003ECE  5017               	movf	DIO_vdWriteDirPin@port^0,w,c
   829  003ED0  6E19               	movwf	??_DIO_vdWriteDirPin^0,c
   830  003ED2  6A1A               	clrf	(??_DIO_vdWriteDirPin+1)^0,c
   831                           
   832                           ; Switch on 2 bytes has been partitioned into a top level switch of size 1, and 1 sub-sw
      +                          itches
   833                           ; Switch size 1, requested type "simple"
   834                           ; Number of cases is 1, Range of values is 0 to 0
   835                           ; switch strategies available:
   836                           ; Name         Instructions Cycles
   837                           ; simple_byte            4     3 (average)
   838                           ;	Chosen strategy is simple_byte
   839  003ED4  501A               	movf	(??_DIO_vdWriteDirPin+1)^0,w,c
   840  003ED6  0A00               	xorlw	0	; case 0
   841  003ED8  B4D8               	btfsc	status,2,c
   842  003EDA  EF71  F01F         	goto	l1096
   843  003EDE  EF7D  F01F         	goto	l65
   844  003EE2                     l1096:
   845  003EE2  FFFF               	dw	65535	; assembler added errata NOP
   846                           
   847                           ; Switch size 1, requested type "simple"
   848                           ; Number of cases is 2, Range of values is 65 to 66
   849                           ; switch strategies available:
   850                           ; Name         Instructions Cycles
   851                           ; simple_byte            7     4 (average)
   852                           ;	Chosen strategy is simple_byte
   853  003EE4  5019               	movf	??_DIO_vdWriteDirPin^0,w,c
   854  003EE6  0A41               	xorlw	65	; case 65
   855  003EE8  B4D8               	btfsc	status,2,c
   856  003EEA  EF04  F01F         	goto	l990
   857  003EEE  0A03               	xorlw	3	; case 66
   858  003EF0  B4D8               	btfsc	status,2,c
   859  003EF2  EF35  F01F         	goto	l996
   860  003EF6  EF7D  F01F         	goto	l65
   861  003EFA                     l65:
   862  003EFA  FFFF               	dw	65535	; assembler added errata NOP
   863  003EFC  0012               	return		;funcret
   864  003EFE  FFFF               	dw	65535	; errata NOP
   865  003F00                     __end_of_DIO_vdWriteDirPin:
   866                           	opt callstack 0
   867                           
   868 ;; *************** function _BTN_u8getStatus *****************
   869 ;; Defined at:
   870 ;;		line 57 in file "BTN.c"
   871 ;; Parameters:    Size  Location     Type
   872 ;;  btn             2    4[COMRAM] PTR struct .
   873 ;;		 -> BTN0(7), 
   874 ;; Auto vars:     Size  Location     Type
   875 ;;		None
   876 ;; Return value:  Size  Location     Type
   877 ;;                  1    wreg      unsigned char 
   878 ;; Registers used:
   879 ;;		wreg, fsr2l, fsr2h, status,2, status,0, cstack
   880 ;; Tracked objects:
   881 ;;		On entry : 0/0
   882 ;;		On exit  : 0/0
   883 ;;		Unchanged: 0/0
   884 ;; Data sizes:     COMRAM   BANK0   BANK1   BANK2   BANK3   BANK4   BANK5
   885 ;;      Params:         2       0       0       0       0       0       0
   886 ;;      Locals:         0       0       0       0       0       0       0
   887 ;;      Temps:          0       0       0       0       0       0       0
   888 ;;      Totals:         2       0       0       0       0       0       0
   889 ;;Total ram usage:        2 bytes
   890 ;; Hardware stack levels used:    1
   891 ;; Hardware stack levels required when called:    1
   892 ;; This function calls:
   893 ;;		_DIO_u8ReadPin
   894 ;; This function is called by:
   895 ;;		_main
   896 ;; This function uses a non-reentrant model
   897 ;;
   898                           
   899                           	psect	text6
   900  003C3A                     __ptext6:
   901                           	opt callstack 0
   902  003C3A                     _BTN_u8getStatus:
   903                           	opt callstack 0
   904  003C3A  FFFF               	dw	65535	; assembler added errata NOP
   905  003C3C                     
   906                           ;BTN.c: 58:  return DIO_u8ReadPin(btn->PORT,btn->pin);
   907  003C3C  EE20 F001          	lfsr	2,1
   908  003C40  501B               	movf	BTN_u8getStatus@btn^0,w,c
   909  003C42  26D9               	addwf	fsr2l,f,c
   910  003C44  501C               	movf	(BTN_u8getStatus@btn+1)^0,w,c
   911  003C46  22DA               	addwfc	fsr2h,f,c
   912  003C48  50DF               	movf	indf2,w,c
   913  003C4A  6E17               	movwf	DIO_u8ReadPin@pin^0,c
   914  003C4C  C01B  FFD9         	movff	BTN_u8getStatus@btn,fsr2l
   915  003C50  C01C  FFDA         	movff	BTN_u8getStatus@btn+1,fsr2h
   916  003C54  50DF               	movf	indf2,w,c
   917  003C56  EC9F  F01E         	call	_DIO_u8ReadPin
   918  003C5A  0012               	return		;funcret
   919  003C5C  FFFF               	dw	65535	; errata NOP
   920  003C5E                     __end_of_BTN_u8getStatus:
   921                           	opt callstack 0
   922                           
   923 ;; *************** function _DIO_u8ReadPin *****************
   924 ;; Defined at:
   925 ;;		line 84 in file "DIO.c"
   926 ;; Parameters:    Size  Location     Type
   927 ;;  port            1    wreg     unsigned char 
   928 ;;  pin             1    0[COMRAM] unsigned char 
   929 ;; Auto vars:     Size  Location     Type
   930 ;;  port            1    3[COMRAM] unsigned char 
   931 ;; Return value:  Size  Location     Type
   932 ;;                  1    wreg      unsigned char 
   933 ;; Registers used:
   934 ;;		wreg, status,2, status,0
   935 ;; Tracked objects:
   936 ;;		On entry : 0/0
   937 ;;		On exit  : 0/0
   938 ;;		Unchanged: 0/0
   939 ;; Data sizes:     COMRAM   BANK0   BANK1   BANK2   BANK3   BANK4   BANK5
   940 ;;      Params:         1       0       0       0       0       0       0
   941 ;;      Locals:         1       0       0       0       0       0       0
   942 ;;      Temps:          2       0       0       0       0       0       0
   943 ;;      Totals:         4       0       0       0       0       0       0
   944 ;;Total ram usage:        4 bytes
   945 ;; Hardware stack levels used:    1
   946 ;; This function calls:
   947 ;;		Nothing
   948 ;; This function is called by:
   949 ;;		_BTN_u8getStatus
   950 ;;		_BTN_vdRead
   951 ;; This function uses a non-reentrant model
   952 ;;
   953                           
   954                           	psect	text7
   955  003D3E                     __ptext7:
   956                           	opt callstack 0
   957  003D3E                     _DIO_u8ReadPin:
   958                           	opt callstack 0
   959  003D3E  FFFF               	dw	65535	; assembler added errata NOP
   960                           
   961                           ;incstack = 0
   962                           ;DIO_u8ReadPin@port stored from wreg
   963  003D40  6E1A               	movwf	DIO_u8ReadPin@port^0,c
   964  003D42                     
   965                           ;DIO.c: 85:  switch(port){
   966  003D42  EFE3  F01E         	goto	l1044
   967  003D46                     l1034:
   968  003D46  FFFF               	dw	65535	; assembler added errata NOP
   969                           
   970                           ;DIO.c: 87:    return ((*p_PORTAdata).PORT & (1<<pin))?1:0;
   971  003D48  C017  F018         	movff	DIO_u8ReadPin@pin,??_DIO_u8ReadPin
   972  003D4C  0E01               	movlw	1
   973  003D4E  6E19               	movwf	(??_DIO_u8ReadPin+1)^0,c
   974  003D50  2A18               	incf	??_DIO_u8ReadPin^0,f,c
   975  003D52  EFAE  F01E         	goto	u384
   976  003D56                     u385:
   977  003D56  FFFF               	dw	65535	; assembler added errata NOP
   978  003D58  90D8               	bcf	status,0,c
   979  003D5A  3619               	rlcf	(??_DIO_u8ReadPin+1)^0,f,c
   980  003D5C                     u384:
   981  003D5C  FFFF               	dw	65535	; assembler added errata NOP
   982  003D5E  2E18               	decfsz	??_DIO_u8ReadPin^0,f,c
   983  003D60  EFAB  F01E         	goto	u385
   984  003D64  5019               	movf	(??_DIO_u8ReadPin+1)^0,w,c
   985  003D66  1480               	andwf	128,w,c	;volatile
   986  003D68  0900               	iorlw	0
   987  003D6A  A4D8               	btfss	status,2,c
   988  003D6C  EFBA  F01E         	goto	u391
   989  003D70  EFBE  F01E         	goto	u390
   990  003D74                     u391:
   991  003D74  FFFF               	dw	65535	; assembler added errata NOP
   992  003D76  0E01               	movlw	1
   993  003D78  EFC0  F01E         	goto	u400
   994  003D7C                     u390:
   995  003D7C  FFFF               	dw	65535	; assembler added errata NOP
   996  003D7E  0E00               	movlw	0
   997  003D80                     u400:
   998  003D80  FFFF               	dw	65535	; assembler added errata NOP
   999  003D82  EFFC  F01E         	goto	l88
  1000  003D86                     l1038:
  1001  003D86  FFFF               	dw	65535	; assembler added errata NOP
  1002                           
  1003                           ;DIO.c: 89:    return ((*p_PORTBdata).PORT & (1<<pin))?1:0;
  1004  003D88  C017  F018         	movff	DIO_u8ReadPin@pin,??_DIO_u8ReadPin
  1005  003D8C  0E01               	movlw	1
  1006  003D8E  6E19               	movwf	(??_DIO_u8ReadPin+1)^0,c
  1007  003D90  2A18               	incf	??_DIO_u8ReadPin^0,f,c
  1008  003D92  EFCE  F01E         	goto	u414
  1009  003D96                     u415:
  1010  003D96  FFFF               	dw	65535	; assembler added errata NOP
  1011  003D98  90D8               	bcf	status,0,c
  1012  003D9A  3619               	rlcf	(??_DIO_u8ReadPin+1)^0,f,c
  1013  003D9C                     u414:
  1014  003D9C  FFFF               	dw	65535	; assembler added errata NOP
  1015  003D9E  2E18               	decfsz	??_DIO_u8ReadPin^0,f,c
  1016  003DA0  EFCB  F01E         	goto	u415
  1017  003DA4  5019               	movf	(??_DIO_u8ReadPin+1)^0,w,c
  1018  003DA6  1481               	andwf	129,w,c	;volatile
  1019  003DA8  0900               	iorlw	0
  1020  003DAA  A4D8               	btfss	status,2,c
  1021  003DAC  EFDA  F01E         	goto	u421
  1022  003DB0  EFDE  F01E         	goto	u420
  1023  003DB4                     u421:
  1024  003DB4  FFFF               	dw	65535	; assembler added errata NOP
  1025  003DB6  0E01               	movlw	1
  1026  003DB8  EFE0  F01E         	goto	u430
  1027  003DBC                     u420:
  1028  003DBC  FFFF               	dw	65535	; assembler added errata NOP
  1029  003DBE  0E00               	movlw	0
  1030  003DC0                     u430:
  1031  003DC0  FFFF               	dw	65535	; assembler added errata NOP
  1032  003DC2  EFFC  F01E         	goto	l88
  1033  003DC6                     l1044:
  1034  003DC6  FFFF               	dw	65535	; assembler added errata NOP
  1035  003DC8  501A               	movf	DIO_u8ReadPin@port^0,w,c
  1036  003DCA  6E18               	movwf	??_DIO_u8ReadPin^0,c
  1037  003DCC  6A19               	clrf	(??_DIO_u8ReadPin+1)^0,c
  1038                           
  1039                           ; Switch on 2 bytes has been partitioned into a top level switch of size 1, and 1 sub-sw
      +                          itches
  1040                           ; Switch size 1, requested type "simple"
  1041                           ; Number of cases is 1, Range of values is 0 to 0
  1042                           ; switch strategies available:
  1043                           ; Name         Instructions Cycles
  1044                           ; simple_byte            4     3 (average)
  1045                           ;	Chosen strategy is simple_byte
  1046  003DCE  5019               	movf	(??_DIO_u8ReadPin+1)^0,w,c
  1047  003DD0  0A00               	xorlw	0	; case 0
  1048  003DD2  B4D8               	btfsc	status,2,c
  1049  003DD4  EFEE  F01E         	goto	l1098
  1050  003DD8  EFFA  F01E         	goto	l1046
  1051  003DDC                     l1098:
  1052  003DDC  FFFF               	dw	65535	; assembler added errata NOP
  1053                           
  1054                           ; Switch size 1, requested type "simple"
  1055                           ; Number of cases is 2, Range of values is 65 to 66
  1056                           ; switch strategies available:
  1057                           ; Name         Instructions Cycles
  1058                           ; simple_byte            7     4 (average)
  1059                           ;	Chosen strategy is simple_byte
  1060  003DDE  5018               	movf	??_DIO_u8ReadPin^0,w,c
  1061  003DE0  0A41               	xorlw	65	; case 65
  1062  003DE2  B4D8               	btfsc	status,2,c
  1063  003DE4  EFA3  F01E         	goto	l1034
  1064  003DE8  0A03               	xorlw	3	; case 66
  1065  003DEA  B4D8               	btfsc	status,2,c
  1066  003DEC  EFC3  F01E         	goto	l1038
  1067  003DF0  EFFA  F01E         	goto	l1046
  1068  003DF4                     l1046:
  1069  003DF4  FFFF               	dw	65535	; assembler added errata NOP
  1070                           
  1071                           ;DIO.c: 91:  return 0;
  1072  003DF6  0E00               	movlw	0
  1073  003DF8                     l88:
  1074  003DF8  FFFF               	dw	65535	; assembler added errata NOP
  1075  003DFA  0012               	return		;funcret
  1076  003DFC  FFFF               	dw	65535	; errata NOP
  1077  003DFE                     __end_of_DIO_u8ReadPin:
  1078                           	opt callstack 0
  1079  003DFE  FFFF               	dw	65535	; assembler added errata NOP
  1080                           
  1081                           	psect	rparam
  1082  0000                     tosu	equ	0xFFF
  1083                           tosh	equ	0xFFE
  1084                           tosl	equ	0xFFD
  1085                           stkptr	equ	0xFFC
  1086                           pclatu	equ	0xFFB
  1087                           pclath	equ	0xFFA
  1088                           pcl	equ	0xFF9
  1089                           tblptru	equ	0xFF8
  1090                           tblptrh	equ	0xFF7
  1091                           tblptrl	equ	0xFF6
  1092                           tablat	equ	0xFF5
  1093                           prodh	equ	0xFF4
  1094                           prodl	equ	0xFF3
  1095                           indf0	equ	0xFEF
  1096                           postinc0	equ	0xFEE
  1097                           postdec0	equ	0xFED
  1098                           preinc0	equ	0xFEC
  1099                           plusw0	equ	0xFEB
  1100                           fsr0h	equ	0xFEA
  1101                           fsr0l	equ	0xFE9
  1102                           wreg	equ	0xFE8
  1103                           indf1	equ	0xFE7
  1104                           postinc1	equ	0xFE6
  1105                           postdec1	equ	0xFE5
  1106                           preinc1	equ	0xFE4
  1107                           plusw1	equ	0xFE3
  1108                           fsr1h	equ	0xFE2
  1109                           fsr1l	equ	0xFE1
  1110                           bsr	equ	0xFE0
  1111                           indf2	equ	0xFDF
  1112                           postinc2	equ	0xFDE
  1113                           postdec2	equ	0xFDD
  1114                           preinc2	equ	0xFDC
  1115                           plusw2	equ	0xFDB
  1116                           fsr2h	equ	0xFDA
  1117                           fsr2l	equ	0xFD9
  1118                           status	equ	0xFD8


Data Sizes:
    Strings     0
    Constant    0
    Data        22
    BSS         8
    Persistent  0
    Stack       0

Auto Spaces:
    Space          Size  Autos    Used
    COMRAM          127     12      42
    BANK0           128      0       0
    BANK1           256      0       0
    BANK2           256      0       0
    BANK3           256      0       0
    BANK4           256      0       0
    BANK5           256      0       0

Pointer List with Targets:

    BTN_u8getStatus@btn	PTR struct . size(2) Largest target is 7
		 -> BTN0(COMRAM[7]), 

    DIO_vdInit@dev	PTR struct . size(2) Largest target is 7
		 -> BTN0(COMRAM[7]), LED0(COMRAM[7]), 

    p_PORTBdirection	PTR volatile struct . size(2) Largest target is 1535
		 -> RAM(DATA[1535]), 

    p_PORTBdata	PTR volatile struct . size(2) Largest target is 1535
		 -> RAM(DATA[1535]), 

    p_PORTAdirection	PTR volatile struct . size(2) Largest target is 1535
		 -> RAM(DATA[1535]), 

    p_PORTAdata	PTR volatile struct . size(2) Largest target is 1535
		 -> RAM(DATA[1535]), 


Critical Paths under _main in COMRAM

    _main->_LED_vdOff
    _main->_LED_vdOn
    _LED_vdOn->_DIO_vdWritePin
    _LED_vdOff->_DIO_vdWritePin
    _DIO_vdInit->_DIO_vdWriteDirPin
    _BTN_u8getStatus->_DIO_u8ReadPin

Critical Paths under _main in BANK0

    None.

Critical Paths under _main in BANK1

    None.

Critical Paths under _main in BANK2

    None.

Critical Paths under _main in BANK3

    None.

Critical Paths under _main in BANK4

    None.

Critical Paths under _main in BANK5

    None.

Call Graph Tables:

 ---------------------------------------------------------------------------------
 (Depth) Function   	        Calls       Base Space   Used Autos Params    Refs
 ---------------------------------------------------------------------------------
 (0) _main                                                 0     0      0    2020
                    _BTN_u8getStatus
                         _DIO_vdInit
                          _LED_vdOff
                           _LED_vdOn
 ---------------------------------------------------------------------------------
 (1) _LED_vdOn                                             7     0      7     579
                                              5 COMRAM     7     0      7
                     _DIO_vdWritePin
 ---------------------------------------------------------------------------------
 (1) _LED_vdOff                                            7     0      7     579
                                              5 COMRAM     7     0      7
                     _DIO_vdWritePin
 ---------------------------------------------------------------------------------
 (2) _DIO_vdWritePin                                       5     3      2     458
                                              0 COMRAM     5     3      2
 ---------------------------------------------------------------------------------
 (1) _DIO_vdInit                                           2     0      2     524
                                              5 COMRAM     2     0      2
                  _DIO_vdWriteDirPin
 ---------------------------------------------------------------------------------
 (2) _DIO_vdWriteDirPin                                    5     3      2     306
                                              0 COMRAM     5     3      2
 ---------------------------------------------------------------------------------
 (1) _BTN_u8getStatus                                      2     0      2     338
                                              4 COMRAM     2     0      2
                      _DIO_u8ReadPin
 ---------------------------------------------------------------------------------
 (2) _DIO_u8ReadPin                                        4     3      1     218
                                              0 COMRAM     4     3      1
 ---------------------------------------------------------------------------------
 Estimated maximum stack depth 2
 ---------------------------------------------------------------------------------

 Call Graph Graphs:

 _main (ROOT)
   _BTN_u8getStatus
     _DIO_u8ReadPin
   _DIO_vdInit
     _DIO_vdWriteDirPin
   _LED_vdOff
     _DIO_vdWritePin
   _LED_vdOn
     _DIO_vdWritePin

 Address spaces:
Name               Size   Autos  Total    Cost      Usage
BIGRAM             5FF      0       0      17        0.0%
EEDATA             100      0       0       0        0.0%
BITBANK5           100      0       0      16        0.0%
BANK5              100      0       0      14        0.0%
BITBANK4           100      0       0      12        0.0%
BANK4              100      0       0      13        0.0%
BITBANK3           100      0       0      10        0.0%
BANK3              100      0       0      11        0.0%
BITBANK2           100      0       0       8        0.0%
BANK2              100      0       0       9        0.0%
BITBANK1           100      0       0       6        0.0%
BANK1              100      0       0       7        0.0%
BITBANK0            80      0       0       4        0.0%
BANK0               80      0       0       5        0.0%
BITCOMRAM           7F      0       0       0        0.0%
COMRAM              7F      C      2A       1       33.1%
BITSFR               0      0       0     200        0.0%
SFR                  0      0       0     200        0.0%
STACK                0      0       0       2        0.0%
NULL                 0      0       0       0        0.0%
ABS                  0      0      2A      15        0.0%
DATA                 0      0      2A       3        0.0%
CODE                 0      0       0       0        0.0%


Microchip Technology PIC18 Macro Assembler V2.10 build 88905656 
Symbol Table                                                                                   Sat Nov 09 19:49:17 2019

                                                        _DIO_vdWritePin 3F00  
                                                           ?_DIO_vdInit 001C  
                                                                    l25 3CE2  
                                                                    l43 3C8E  
                                                                    l54 3FFA  
                                                                    l65 3EFA  
                                                                    l88 3DF8  
                                                           __CFG_BOR$ON 000000  
                                                     _DIO_vdWriteDirPin 3E00  
                                                          __CFG_CP0$OFF 000000  
                                                          __CFG_CP1$OFF 000000  
                                                          __CFG_CP2$OFF 000000  
                                                          __CFG_CP3$OFF 000000  
                                                           __CFG_OSC$XT 000000  
                                                    ?_DIO_vdWriteDirPin 0017  
                                                                   l112 3C20  
                                                                   l115 3C0C  
                                                                   l148 3C5A  
                                                                   l990 3E08  
                                                                   l992 3E1E  
                                                                   l994 3E42  
                                                                   l996 3E6A  
                                                                   l988 3E04  
                                                                   l998 3E80  
                                                          __CFG_CPB$OFF 000000  
                                                                   u400 3D80  
                                                                   u304 3E94  
                                                                   u320 3F1C  
                                                                   u305 3E8E  
                                                                   u321 3F16  
                                                                   u314 3EBA  
                                                                   u315 3EB4  
                                                                   u420 3DBC  
                                                                   u260 3E1C  
                                                                   u421 3DB4  
                                                                   u261 3E16  
                                                                   u430 3DC0  
                                                                   u414 3D9C  
                                                                   u350 3F7E  
                                                                   u334 3F32  
                                                                   u415 3D96  
                                                                   u351 3F78  
                                                                   u335 3F2C  
                                                                   u344 3F58  
                                                                   u440 3D02  
                                                                   u345 3F52  
                                                                   u441 3CFC  
                                                                   u290 3E7E  
                                                                   u274 3E32  
                                                          __CFG_CPD$OFF 000000  
                                                                   u291 3E78  
                                                                   u275 3E2C  
                                                                   u451 3D0E  
                                                                   u284 3E58  
                                                                   u364 3F94  
                                                                   u285 3E52  
                                                                   u365 3F8E  
                                                                   u461 3D2A  
                                                                   u390 3D7C  
                                                                   u374 3FBA  
                                                                   u391 3D74  
                                                                   u375 3FB4  
                                                                   u384 3D5C  
                                                                   u385 3D56  
                                                          __CFG_BORV$20 000000  
                                                                   wreg 000FE8  
                                                   ??_DIO_vdWriteDirPin 0019  
                                                          __CFG_LVP$OFF 000000  
                                                          __CFG_WDT$OFF 000000  
                                                                  l1000 3EA4  
                                                                  l1010 3F04  
                                                                  l1004 3ECC  
                                                                  l1020 3F80  
                                                                  l1012 3F08  
                                                                  l1022 3FA4  
                                                                  l1014 3F1E  
                                                                  l1032 3D42  
                                                                  l1016 3F42  
                                                                  l1034 3D46  
                                                                  l1018 3F6A  
                                                                  l1026 3FCC  
                                                                  l1044 3DC6  
                                                                  l1060 3C12  
                                                                  l1046 3DF4  
                                                                  l1038 3D86  
                                                                  l1054 3C60  
                                                                  l1062 3BFE  
                                                                  l1056 3C3C  
                                                                  l1064 3CC8  
                                                                  l1066 3D04  
                                                                  l1068 3D1E  
                                                                  l1094 3FE2  
                                                                  l1096 3EE2  
                                                                  l1098 3DDC  
                                                                  _LED0 0010  
                                                                  _BTN0 0009  
                                                          __CFG_STVR$ON 000000  
                                                                  _main 3CC8  
                                                                  fsr2h 000FDA  
                                                                  indf2 000FDF  
                                                                  fsr1l 000FE1  
                                                                  fsr2l 000FD9  
                                                                  start 0002  
                                                __end_of_DIO_vdWritePin 4000  
                                                          ___param_bank 000000  
                                                    __size_of_LED_vdOff 0014  
                                             __end_of_DIO_vdWriteDirPin 3F00  
                                                       ??_DIO_u8ReadPin 0018  
                                                         __CFG_OSCS$OFF 000000  
                                                      __end_of_LED_vdOn 3C24  
                                                                 ?_main 0017  
                                                         __CFG_PWRT$OFF 000000  
                                                         __CFG_WRT0$OFF 000000  
                                                         __CFG_WRT1$OFF 000000  
                                                         __CFG_WRT2$OFF 000000  
                                                         __CFG_WRT3$OFF 000000  
                                                        __CFG_EBTR0$OFF 000000  
                                                        __CFG_EBTR1$OFF 000000  
                                                        __CFG_EBTR2$OFF 000000  
                                                        __CFG_EBTR3$OFF 000000  
                                                         __CFG_WRTB$OFF 000000  
                                                         __CFG_WRTC$OFF 000000  
                                                         __CFG_WRTD$OFF 000000  
                                                        __CFG_EBTRB$OFF 000000  
                                                   __size_of_DIO_vdInit 0034  
                                                                 tablat 000FF5  
                                                                 plusw0 000FEB  
                                                                 plusw2 000FDB  
                                                                 status 000FD8  
                                                      _p_PORTAdirection 0005  
                                                       ?_DIO_vdWritePin 0017  
                                                      _p_PORTBdirection 0001  
                                                       __initialization 3C92  
                                                          __end_of_main 3D3E  
                                              __size_of_BTN_u8getStatus 0024  
                                                                ??_main 0023  
                                                         __activetblptr 000002  
                                                           LED_vdOn@led 001C  
                                                       __CFG_CCP2MUX$ON 000000  
                                                     __end_of_LED_vdOff 3C10  
                                                        __CFG_WDTPS$128 000000  
                                            __size_of_DIO_vdWriteDirPin 0100  
                                                                clear_0 3CB8  
                                                          __pdataCOMRAM 0001  
                                                                tblptrh 000FF7  
                                                                tblptrl 000FF6  
                                                                tblptru 000FF8  
                                                         DIO_vdInit@dev 001C  
                                                    BTN_u8getStatus@btn 001B  
                                                            __accesstop 0080  
                                               __end_of__initialization 3CBE  
                                                         ___rparam_used 000001  
                                                             ?_LED_vdOn 001C  
                                                        __pcstackCOMRAM 0017  
                                                          ??_DIO_vdInit 001E  
                                                     ??_BTN_u8getStatus 001D  
                                                    __end_of_DIO_vdInit 3C92  
                                                            ??_LED_vdOn 0023  
                                                          LED_vdOff@led 001C  
                                                      DIO_u8ReadPin@pin 0017  
                                                     DIO_vdWritePin@pin 0018  
                                                      ??_DIO_vdWritePin 0019  
                                                               __Hparam 0000  
                                                               __Lparam 0000  
                                                               __pcinit 3C92  
                                                 __end_of_DIO_u8ReadPin 3DFE  
                                                               __ramtop 0600  
                                                               __ptext0 3CC8  
                                                               __ptext1 3C10  
                                                               __ptext2 3BFC  
                                                               __ptext3 3F00  
                                                               __ptext4 3C5E  
                                                               __ptext5 3E00  
                                                               __ptext6 3C3A  
                                                               __ptext7 3D3E  
                                                  end_of_initialization 3CBE  
                                                             _LED_vdOff 3BFC  
                                                         __Lmediumconst 0000  
                                                             _BTNstatus 0023  
                                                               postdec1 000FE5  
                                                               postinc0 000FEE  
                                                            ?_LED_vdOff 001C  
                                                     __size_of_LED_vdOn 0014  
                                                       _BTN_u8getStatus 3C3A  
                                                 DIO_vdWriteDirPin@data 001B  
                                                         __pidataCOMRAM 3C24  
                                                 DIO_vdWriteDirPin@port 0017  
                                                   start_initialization 3C92  
                                                           _p_PORTAdata 0007  
                                                           _p_PORTBdata 0003  
                                                           __pbssCOMRAM 0023  
                                                           ??_LED_vdOff 0023  
                                               __end_of_BTN_u8getStatus 3C5E  
                                                     DIO_u8ReadPin@port 001A  
                                                    DIO_vdWritePin@data 001B  
                                                    DIO_vdWritePin@port 0017  
                                                              _LED_vdOn 3C10  
                                                  DIO_vdWriteDirPin@pin 0018  
                                                             copy_data0 3CA6  
                                                __size_of_DIO_u8ReadPin 00C0  
                                                      ?_BTN_u8getStatus 001B  
                                                              __Hrparam 0000  
                                                              __Lrparam 0000  
                                               __size_of_DIO_vdWritePin 0100  
                                                         __size_of_main 0076  
                                                            _DIO_vdInit 3C5E  
                                                         _DIO_u8ReadPin 3D3E  
                                                        ?_DIO_u8ReadPin 0017  
